                                      1 ;--------------------------------------------------------
                                      2 ; File Created by SDCC : free open source ISO C Compiler 
                                      3 ; Version 4.3.2 #14228 (MINGW64)
                                      4 ;--------------------------------------------------------
                                      5 	.module ClubHeist
                                      6 	.optsdcc -msm83
                                      7 	
                                      8 ;--------------------------------------------------------
                                      9 ; Public variables in this module
                                     10 ;--------------------------------------------------------
                                     11 	.globl _main
                                     12 	.globl _danceOff
                                     13 	.globl _EndScreen
                                     14 	.globl _animateDancing
                                     15 	.globl _gameover
                                     16 	.globl _checkInput
                                     17 	.globl _init
                                     18 	.globl _level_two_init
                                     19 	.globl _level_one_init
                                     20 	.globl _animatePlayer
                                     21 	.globl _init_bouncer
                                     22 	.globl _init_cardboard
                                     23 	.globl _init_character
                                     24 	.globl _init_player
                                     25 	.globl _updateSwitches
                                     26 	.globl _rand
                                     27 	.globl _initrand
                                     28 	.globl _Run_Bouncer
                                     29 	.globl _Destroy_Bouncer
                                     30 	.globl _Move_Bouncer
                                     31 	.globl _Destroy_Box
                                     32 	.globl _Move_Box
                                     33 	.globl _Destroy_Character
                                     34 	.globl _Move_Character
                                     35 	.globl _set_sprite_data
                                     36 	.globl _set_win_tiles
                                     37 	.globl _set_win_data
                                     38 	.globl _set_bkg_tiles
                                     39 	.globl _set_bkg_data
                                     40 	.globl _wait_vbl_done
                                     41 	.globl _joypad
                                     42 	.globl _MoveCooldown
                                     43 	.globl _PlayerState
                                     44 	.globl _In_Loading_Screen
                                     45 	.globl _spriteIndex
                                     46 	.globl _tilesetIndex
                                     47 	.globl _LevelTwoTutorial
                                     48 	.globl _EndScreenMap
                                     49 	.globl _ClubCharacterSprites
                                     50 	.globl _LevelTwoMapB
                                     51 	.globl _LevelTwoMapA
                                     52 	.globl _LevelTwoStartMap
                                     53 	.globl _GameOverMap
                                     54 	.globl _LevelOneTutorialMap
                                     55 	.globl _EmptyMap
                                     56 	.globl _PressStartMap
                                     57 	.globl _Alphabet
                                     58 	.globl _MainCharacterFull
                                     59 	.globl _MainCharacterFullMap
                                     60 	.globl _ClubFront
                                     61 	.globl _SpriteSet
                                     62 	.globl _Tileset
                                     63 	.globl _Dance_Master
                                     64 	.globl _Bkg_Chars
                                     65 	.globl _Bouncer
                                     66 	.globl _Box
                                     67 	.globl _Player
                                     68 ;--------------------------------------------------------
                                     69 ; special function registers
                                     70 ;--------------------------------------------------------
                                     71 ;--------------------------------------------------------
                                     72 ; ram data
                                     73 ;--------------------------------------------------------
                                     74 	.area _DATA
      000000                         75 _Player::
      000000                         76 	.ds 11
      00000B                         77 _Box::
      00000B                         78 	.ds 12
      000017                         79 _Bouncer::
      000017                         80 	.ds 11
      000022                         81 _Bkg_Chars::
      000022                         82 	.ds 88
      00007A                         83 _Dance_Master::
      00007A                         84 	.ds 11
                                     85 ;--------------------------------------------------------
                                     86 ; ram data
                                     87 ;--------------------------------------------------------
                                     88 	.area _INITIALIZED
      000000                         89 _Tileset::
      000000                         90 	.ds 1056
      000420                         91 _SpriteSet::
      000420                         92 	.ds 976
      0007F0                         93 _ClubFront::
      0007F0                         94 	.ds 360
      000958                         95 _MainCharacterFullMap::
      000958                         96 	.ds 24
      000970                         97 _MainCharacterFull::
      000970                         98 	.ds 400
      000B00                         99 _Alphabet::
      000B00                        100 	.ds 432
      000CB0                        101 _PressStartMap::
      000CB0                        102 	.ds 11
      000CBB                        103 _EmptyMap::
      000CBB                        104 	.ds 1024
      0010BB                        105 _LevelOneTutorialMap::
      0010BB                        106 	.ds 24
      0010D3                        107 _GameOverMap::
      0010D3                        108 	.ds 9
      0010DC                        109 _LevelTwoStartMap::
      0010DC                        110 	.ds 18
      0010EE                        111 _LevelTwoMapA::
      0010EE                        112 	.ds 360
      001256                        113 _LevelTwoMapB::
      001256                        114 	.ds 360
      0013BE                        115 _ClubCharacterSprites::
      0013BE                        116 	.ds 576
      0015FE                        117 _EndScreenMap::
      0015FE                        118 	.ds 44
      00162A                        119 _LevelTwoTutorial::
      00162A                        120 	.ds 100
      00168E                        121 _tilesetIndex::
      00168E                        122 	.ds 1
      00168F                        123 _spriteIndex::
      00168F                        124 	.ds 1
      001690                        125 _In_Loading_Screen::
      001690                        126 	.ds 1
      001691                        127 _PlayerState::
      001691                        128 	.ds 1
      001692                        129 _MoveCooldown::
      001692                        130 	.ds 1
                                    131 ;--------------------------------------------------------
                                    132 ; absolute external ram data
                                    133 ;--------------------------------------------------------
                                    134 	.area _DABS (ABS)
                                    135 ;--------------------------------------------------------
                                    136 ; global & static initialisations
                                    137 ;--------------------------------------------------------
                                    138 	.area _HOME
                                    139 	.area _GSINIT
                                    140 	.area _GSFINAL
                                    141 	.area _GSINIT
                                    142 ;--------------------------------------------------------
                                    143 ; Home
                                    144 ;--------------------------------------------------------
                                    145 	.area _HOME
                                    146 	.area _HOME
                                    147 ;--------------------------------------------------------
                                    148 ; code
                                    149 ;--------------------------------------------------------
                                    150 	.area _CODE
                                    151 ;Character.c:17: void Move_Character(struct Character* character){
                                    152 ;	---------------------------------
                                    153 ; Function Move_Character
                                    154 ; ---------------------------------
      000000                        155 _Move_Character::
      000000 E8 FA            [16]  156 	add	sp, #-6
      000002 4B               [ 4]  157 	ld	c, e
      000003 42               [ 4]  158 	ld	b, d
                                    159 ;Character.c:19: move_sprite(character->spriteids[0], character->x, character->y);
      000004 21 08 00         [12]  160 	ld	hl, #0x0008
      000007 09               [ 8]  161 	add	hl, bc
      000008 33               [ 8]  162 	inc	sp
      000009 33               [ 8]  163 	inc	sp
      00000A 5D               [ 4]  164 	ld	e, l
      00000B 54               [ 4]  165 	ld	d, h
      00000C D5               [16]  166 	push	de
      00000D 1A               [ 8]  167 	ld	a, (de)
      00000E F8 04            [12]  168 	ldhl	sp,	#4
      000010 77               [ 8]  169 	ld	(hl), a
      000011 21 07 00         [12]  170 	ld	hl, #0x0007
      000014 09               [ 8]  171 	add	hl, bc
      000015 E5               [16]  172 	push	hl
      000016 7D               [ 4]  173 	ld	a, l
      000017 F8 04            [12]  174 	ldhl	sp,	#4
      000019 77               [ 8]  175 	ld	(hl), a
      00001A E1               [12]  176 	pop	hl
      00001B 7C               [ 4]  177 	ld	a, h
      00001C F8 03            [12]  178 	ldhl	sp,	#3
      00001E 32               [ 8]  179 	ld	(hl-), a
      00001F 2A               [ 8]  180 	ld	a, (hl+)
      000020 5F               [ 4]  181 	ld	e, a
      000021 2A               [ 8]  182 	ld	a, (hl+)
      000022 23               [ 8]  183 	inc	hl
      000023 57               [ 4]  184 	ld	d, a
      000024 1A               [ 8]  185 	ld	a, (de)
      000025 77               [ 8]  186 	ld	(hl), a
      000026 0A               [ 8]  187 	ld	a, (bc)
                                    188 ;c:\users\john\gbdk-win64\gbdk\include\gb\gb.h:1877: OAM_item_t * itm = &shadow_OAM[nb];
      000027 6F               [ 4]  189 	ld	l, a
                                    190 ;	spillPairReg hl
                                    191 ;	spillPairReg hl
      000028 26 00            [ 8]  192 	ld	h, #0x00
                                    193 ;	spillPairReg hl
                                    194 ;	spillPairReg hl
      00002A 29               [ 8]  195 	add	hl, hl
      00002B 29               [ 8]  196 	add	hl, hl
      00002C 11r00r00         [12]  197 	ld	de, #_shadow_OAM
      00002F 19               [ 8]  198 	add	hl, de
      000030 5D               [ 4]  199 	ld	e, l
      000031 54               [ 4]  200 	ld	d, h
                                    201 ;c:\users\john\gbdk-win64\gbdk\include\gb\gb.h:1878: itm->y=y, itm->x=x;
      000032 F8 04            [12]  202 	ldhl	sp,	#4
      000034 2A               [ 8]  203 	ld	a, (hl+)
      000035 12               [ 8]  204 	ld	(de), a
      000036 13               [ 8]  205 	inc	de
                                    206 ;Character.c:20: move_sprite(character->spriteids[1], character->x + SPRITE_WIDTH, character->y);
      000037 3A               [ 8]  207 	ld	a, (hl-)
      000038 12               [ 8]  208 	ld	(de), a
      000039 D1               [12]  209 	pop	de
      00003A D5               [16]  210 	push	de
      00003B 1A               [ 8]  211 	ld	a, (de)
      00003C 32               [ 8]  212 	ld	(hl-), a
      00003D 2B               [ 8]  213 	dec	hl
      00003E 2A               [ 8]  214 	ld	a, (hl+)
      00003F 5F               [ 4]  215 	ld	e, a
      000040 2A               [ 8]  216 	ld	a, (hl+)
      000041 23               [ 8]  217 	inc	hl
      000042 57               [ 4]  218 	ld	d, a
      000043 1A               [ 8]  219 	ld	a, (de)
      000044 C6 08            [ 8]  220 	add	a, #0x08
      000046 77               [ 8]  221 	ld	(hl), a
      000047 69               [ 4]  222 	ld	l, c
                                    223 ;	spillPairReg hl
                                    224 ;	spillPairReg hl
      000048 60               [ 4]  225 	ld	h, b
                                    226 ;	spillPairReg hl
                                    227 ;	spillPairReg hl
      000049 23               [ 8]  228 	inc	hl
                                    229 ;c:\users\john\gbdk-win64\gbdk\include\gb\gb.h:1877: OAM_item_t * itm = &shadow_OAM[nb];
      00004A 6E               [ 8]  230 	ld	l, (hl)
                                    231 ;	spillPairReg hl
                                    232 ;	spillPairReg hl
      00004B 26 00            [ 8]  233 	ld	h, #0x00
                                    234 ;	spillPairReg hl
                                    235 ;	spillPairReg hl
      00004D 29               [ 8]  236 	add	hl, hl
      00004E 29               [ 8]  237 	add	hl, hl
      00004F 11r00r00         [12]  238 	ld	de, #_shadow_OAM
      000052 19               [ 8]  239 	add	hl, de
      000053 5D               [ 4]  240 	ld	e, l
      000054 54               [ 4]  241 	ld	d, h
                                    242 ;c:\users\john\gbdk-win64\gbdk\include\gb\gb.h:1878: itm->y=y, itm->x=x;
      000055 F8 04            [12]  243 	ldhl	sp,	#4
      000057 2A               [ 8]  244 	ld	a, (hl+)
      000058 12               [ 8]  245 	ld	(de), a
      000059 13               [ 8]  246 	inc	de
                                    247 ;Character.c:21: move_sprite(character->spriteids[2], character->x, character->y+ SPRITE_WIDTH);
      00005A 3A               [ 8]  248 	ld	a, (hl-)
      00005B 12               [ 8]  249 	ld	(de), a
      00005C D1               [12]  250 	pop	de
      00005D D5               [16]  251 	push	de
      00005E 1A               [ 8]  252 	ld	a, (de)
      00005F C6 08            [ 8]  253 	add	a, #0x08
      000061 32               [ 8]  254 	ld	(hl-), a
      000062 2B               [ 8]  255 	dec	hl
      000063 2A               [ 8]  256 	ld	a, (hl+)
      000064 5F               [ 4]  257 	ld	e, a
      000065 2A               [ 8]  258 	ld	a, (hl+)
      000066 23               [ 8]  259 	inc	hl
      000067 57               [ 4]  260 	ld	d, a
      000068 1A               [ 8]  261 	ld	a, (de)
      000069 77               [ 8]  262 	ld	(hl), a
      00006A 69               [ 4]  263 	ld	l, c
                                    264 ;	spillPairReg hl
                                    265 ;	spillPairReg hl
      00006B 60               [ 4]  266 	ld	h, b
                                    267 ;	spillPairReg hl
                                    268 ;	spillPairReg hl
      00006C 23               [ 8]  269 	inc	hl
      00006D 23               [ 8]  270 	inc	hl
                                    271 ;c:\users\john\gbdk-win64\gbdk\include\gb\gb.h:1877: OAM_item_t * itm = &shadow_OAM[nb];
      00006E 6E               [ 8]  272 	ld	l, (hl)
                                    273 ;	spillPairReg hl
                                    274 ;	spillPairReg hl
      00006F 26 00            [ 8]  275 	ld	h, #0x00
                                    276 ;	spillPairReg hl
                                    277 ;	spillPairReg hl
      000071 29               [ 8]  278 	add	hl, hl
      000072 29               [ 8]  279 	add	hl, hl
      000073 11r00r00         [12]  280 	ld	de, #_shadow_OAM
      000076 19               [ 8]  281 	add	hl, de
      000077 5D               [ 4]  282 	ld	e, l
      000078 54               [ 4]  283 	ld	d, h
                                    284 ;c:\users\john\gbdk-win64\gbdk\include\gb\gb.h:1878: itm->y=y, itm->x=x;
      000079 F8 04            [12]  285 	ldhl	sp,	#4
      00007B 2A               [ 8]  286 	ld	a, (hl+)
      00007C 12               [ 8]  287 	ld	(de), a
      00007D 13               [ 8]  288 	inc	de
      00007E 7E               [ 8]  289 	ld	a, (hl)
      00007F 12               [ 8]  290 	ld	(de), a
                                    291 ;Character.c:22: move_sprite(character->spriteids[3], character->x + SPRITE_WIDTH, character->y + SPRITE_WIDTH);
      000080 D1               [12]  292 	pop	de
      000081 D5               [16]  293 	push	de
      000082 1A               [ 8]  294 	ld	a, (de)
      000083 C6 08            [ 8]  295 	add	a, #0x08
      000085 32               [ 8]  296 	ld	(hl-), a
      000086 2B               [ 8]  297 	dec	hl
      000087 2B               [ 8]  298 	dec	hl
      000088 2A               [ 8]  299 	ld	a, (hl+)
      000089 5F               [ 4]  300 	ld	e, a
      00008A 56               [ 8]  301 	ld	d, (hl)
      00008B 1A               [ 8]  302 	ld	a, (de)
      00008C C6 08            [ 8]  303 	add	a, #0x08
      00008E 5F               [ 4]  304 	ld	e, a
      00008F 03               [ 8]  305 	inc	bc
      000090 03               [ 8]  306 	inc	bc
      000091 03               [ 8]  307 	inc	bc
      000092 0A               [ 8]  308 	ld	a, (bc)
                                    309 ;c:\users\john\gbdk-win64\gbdk\include\gb\gb.h:1877: OAM_item_t * itm = &shadow_OAM[nb];
      000093 6F               [ 4]  310 	ld	l, a
      000094 01r00r00         [12]  311 	ld	bc, #_shadow_OAM+0
                                    312 ;	spillPairReg hl
                                    313 ;	spillPairReg hl
      000097 26 00            [ 8]  314 	ld	h, #0x00
                                    315 ;	spillPairReg hl
                                    316 ;	spillPairReg hl
      000099 29               [ 8]  317 	add	hl, hl
      00009A 29               [ 8]  318 	add	hl, hl
      00009B 09               [ 8]  319 	add	hl, bc
      00009C 4D               [ 4]  320 	ld	c, l
      00009D 44               [ 4]  321 	ld	b, h
                                    322 ;c:\users\john\gbdk-win64\gbdk\include\gb\gb.h:1878: itm->y=y, itm->x=x;
      00009E F8 05            [12]  323 	ldhl	sp,	#5
      0000A0 7E               [ 8]  324 	ld	a, (hl)
      0000A1 02               [ 8]  325 	ld	(bc), a
      0000A2 03               [ 8]  326 	inc	bc
      0000A3 7B               [ 4]  327 	ld	a, e
      0000A4 02               [ 8]  328 	ld	(bc), a
                                    329 ;Character.c:22: move_sprite(character->spriteids[3], character->x + SPRITE_WIDTH, character->y + SPRITE_WIDTH);
                                    330 ;Character.c:23: }
      0000A5 E8 06            [16]  331 	add	sp, #6
      0000A7 C9               [16]  332 	ret
                                    333 ;Character.c:24: void Destroy_Character(struct Character* bouncer){
                                    334 ;	---------------------------------
                                    335 ; Function Destroy_Character
                                    336 ; ---------------------------------
      0000A8                        337 _Destroy_Character::
      0000A8 D5               [16]  338 	push	de
                                    339 ;Character.c:25: for(int i = 0; i < 4; i++){
      0000A9 01 00 00         [12]  340 	ld	bc, #0x0000
      0000AC                        341 00104$:
      0000AC 79               [ 4]  342 	ld	a, c
      0000AD D6 04            [ 8]  343 	sub	a, #0x04
      0000AF 78               [ 4]  344 	ld	a, b
      0000B0 17               [ 4]  345 	rla
      0000B1 3F               [ 4]  346 	ccf
      0000B2 1F               [ 4]  347 	rra
      0000B3 DE 80            [ 8]  348 	sbc	a, #0x80
      0000B5 30 17            [12]  349 	jr	NC, 00106$
                                    350 ;Character.c:26: set_sprite_tile(bouncer->spriteids[i], 0x7F);
      0000B7 E1               [12]  351 	pop	hl
      0000B8 E5               [16]  352 	push	hl
      0000B9 09               [ 8]  353 	add	hl, bc
      0000BA 5D               [ 4]  354 	ld	e, l
      0000BB 54               [ 4]  355 	ld	d, h
      0000BC 1A               [ 8]  356 	ld	a, (de)
      0000BD 5F               [ 4]  357 	ld	e, a
                                    358 ;c:\users\john\gbdk-win64\gbdk\include\gb\gb.h:1804: shadow_OAM[nb].tile=tile;
      0000BE 26 00            [ 8]  359 	ld	h, #0x00
                                    360 ;	spillPairReg hl
                                    361 ;	spillPairReg hl
      0000C0 6B               [ 4]  362 	ld	l, e
      0000C1 29               [ 8]  363 	add	hl, hl
      0000C2 29               [ 8]  364 	add	hl, hl
      0000C3 11r00r00         [12]  365 	ld	de, #_shadow_OAM
      0000C6 19               [ 8]  366 	add	hl, de
      0000C7 23               [ 8]  367 	inc	hl
      0000C8 23               [ 8]  368 	inc	hl
      0000C9 36 7F            [12]  369 	ld	(hl), #0x7f
                                    370 ;Character.c:25: for(int i = 0; i < 4; i++){
      0000CB 03               [ 8]  371 	inc	bc
      0000CC 18 DE            [12]  372 	jr	00104$
      0000CE                        373 00106$:
                                    374 ;Character.c:28: }
      0000CE 33               [ 8]  375 	inc	sp
      0000CF 33               [ 8]  376 	inc	sp
      0000D0 C9               [16]  377 	ret
                                    378 ;CardboardBox.c:15: void Move_Box(struct CardboardBox* character){
                                    379 ;	---------------------------------
                                    380 ; Function Move_Box
                                    381 ; ---------------------------------
      0000D1                        382 _Move_Box::
      0000D1 E8 FA            [16]  383 	add	sp, #-6
      0000D3 4B               [ 4]  384 	ld	c, e
      0000D4 42               [ 4]  385 	ld	b, d
                                    386 ;CardboardBox.c:17: move_sprite(character->spriteids[0], character->x, character->y);
      0000D5 21 09 00         [12]  387 	ld	hl, #0x0009
      0000D8 09               [ 8]  388 	add	hl, bc
      0000D9 33               [ 8]  389 	inc	sp
      0000DA 33               [ 8]  390 	inc	sp
      0000DB 5D               [ 4]  391 	ld	e, l
      0000DC 54               [ 4]  392 	ld	d, h
      0000DD D5               [16]  393 	push	de
      0000DE 1A               [ 8]  394 	ld	a, (de)
      0000DF F8 04            [12]  395 	ldhl	sp,	#4
      0000E1 77               [ 8]  396 	ld	(hl), a
      0000E2 21 08 00         [12]  397 	ld	hl, #0x0008
      0000E5 09               [ 8]  398 	add	hl, bc
      0000E6 E5               [16]  399 	push	hl
      0000E7 7D               [ 4]  400 	ld	a, l
      0000E8 F8 04            [12]  401 	ldhl	sp,	#4
      0000EA 77               [ 8]  402 	ld	(hl), a
      0000EB E1               [12]  403 	pop	hl
      0000EC 7C               [ 4]  404 	ld	a, h
      0000ED F8 03            [12]  405 	ldhl	sp,	#3
      0000EF 32               [ 8]  406 	ld	(hl-), a
      0000F0 2A               [ 8]  407 	ld	a, (hl+)
      0000F1 5F               [ 4]  408 	ld	e, a
      0000F2 2A               [ 8]  409 	ld	a, (hl+)
      0000F3 23               [ 8]  410 	inc	hl
      0000F4 57               [ 4]  411 	ld	d, a
      0000F5 1A               [ 8]  412 	ld	a, (de)
      0000F6 77               [ 8]  413 	ld	(hl), a
      0000F7 0A               [ 8]  414 	ld	a, (bc)
                                    415 ;c:\users\john\gbdk-win64\gbdk\include\gb\gb.h:1877: OAM_item_t * itm = &shadow_OAM[nb];
      0000F8 6F               [ 4]  416 	ld	l, a
                                    417 ;	spillPairReg hl
                                    418 ;	spillPairReg hl
      0000F9 26 00            [ 8]  419 	ld	h, #0x00
                                    420 ;	spillPairReg hl
                                    421 ;	spillPairReg hl
      0000FB 29               [ 8]  422 	add	hl, hl
      0000FC 29               [ 8]  423 	add	hl, hl
      0000FD 11r00r00         [12]  424 	ld	de, #_shadow_OAM
      000100 19               [ 8]  425 	add	hl, de
      000101 5D               [ 4]  426 	ld	e, l
      000102 54               [ 4]  427 	ld	d, h
                                    428 ;c:\users\john\gbdk-win64\gbdk\include\gb\gb.h:1878: itm->y=y, itm->x=x;
      000103 F8 04            [12]  429 	ldhl	sp,	#4
      000105 2A               [ 8]  430 	ld	a, (hl+)
      000106 12               [ 8]  431 	ld	(de), a
      000107 13               [ 8]  432 	inc	de
                                    433 ;CardboardBox.c:18: move_sprite(character->spriteids[1], character->x + SPRITE_WIDTH, character->y);
      000108 3A               [ 8]  434 	ld	a, (hl-)
      000109 12               [ 8]  435 	ld	(de), a
      00010A D1               [12]  436 	pop	de
      00010B D5               [16]  437 	push	de
      00010C 1A               [ 8]  438 	ld	a, (de)
      00010D 32               [ 8]  439 	ld	(hl-), a
      00010E 2B               [ 8]  440 	dec	hl
      00010F 2A               [ 8]  441 	ld	a, (hl+)
      000110 5F               [ 4]  442 	ld	e, a
      000111 2A               [ 8]  443 	ld	a, (hl+)
      000112 23               [ 8]  444 	inc	hl
      000113 57               [ 4]  445 	ld	d, a
      000114 1A               [ 8]  446 	ld	a, (de)
      000115 C6 08            [ 8]  447 	add	a, #0x08
      000117 77               [ 8]  448 	ld	(hl), a
      000118 69               [ 4]  449 	ld	l, c
                                    450 ;	spillPairReg hl
                                    451 ;	spillPairReg hl
      000119 60               [ 4]  452 	ld	h, b
                                    453 ;	spillPairReg hl
                                    454 ;	spillPairReg hl
      00011A 23               [ 8]  455 	inc	hl
                                    456 ;c:\users\john\gbdk-win64\gbdk\include\gb\gb.h:1877: OAM_item_t * itm = &shadow_OAM[nb];
      00011B 6E               [ 8]  457 	ld	l, (hl)
                                    458 ;	spillPairReg hl
                                    459 ;	spillPairReg hl
      00011C 26 00            [ 8]  460 	ld	h, #0x00
                                    461 ;	spillPairReg hl
                                    462 ;	spillPairReg hl
      00011E 29               [ 8]  463 	add	hl, hl
      00011F 29               [ 8]  464 	add	hl, hl
      000120 11r00r00         [12]  465 	ld	de, #_shadow_OAM
      000123 19               [ 8]  466 	add	hl, de
      000124 5D               [ 4]  467 	ld	e, l
      000125 54               [ 4]  468 	ld	d, h
                                    469 ;c:\users\john\gbdk-win64\gbdk\include\gb\gb.h:1878: itm->y=y, itm->x=x;
      000126 F8 04            [12]  470 	ldhl	sp,	#4
      000128 2A               [ 8]  471 	ld	a, (hl+)
      000129 12               [ 8]  472 	ld	(de), a
      00012A 13               [ 8]  473 	inc	de
                                    474 ;CardboardBox.c:19: move_sprite(character->spriteids[2], character->x + SPRITE_WIDTH * 2, character->y);
      00012B 3A               [ 8]  475 	ld	a, (hl-)
      00012C 12               [ 8]  476 	ld	(de), a
      00012D D1               [12]  477 	pop	de
      00012E D5               [16]  478 	push	de
      00012F 1A               [ 8]  479 	ld	a, (de)
      000130 32               [ 8]  480 	ld	(hl-), a
      000131 2B               [ 8]  481 	dec	hl
      000132 2A               [ 8]  482 	ld	a, (hl+)
      000133 5F               [ 4]  483 	ld	e, a
      000134 2A               [ 8]  484 	ld	a, (hl+)
      000135 23               [ 8]  485 	inc	hl
      000136 57               [ 4]  486 	ld	d, a
      000137 1A               [ 8]  487 	ld	a, (de)
      000138 C6 10            [ 8]  488 	add	a, #0x10
      00013A 77               [ 8]  489 	ld	(hl), a
      00013B 69               [ 4]  490 	ld	l, c
                                    491 ;	spillPairReg hl
                                    492 ;	spillPairReg hl
      00013C 60               [ 4]  493 	ld	h, b
                                    494 ;	spillPairReg hl
                                    495 ;	spillPairReg hl
      00013D 23               [ 8]  496 	inc	hl
      00013E 23               [ 8]  497 	inc	hl
                                    498 ;c:\users\john\gbdk-win64\gbdk\include\gb\gb.h:1877: OAM_item_t * itm = &shadow_OAM[nb];
      00013F 6E               [ 8]  499 	ld	l, (hl)
                                    500 ;	spillPairReg hl
                                    501 ;	spillPairReg hl
      000140 26 00            [ 8]  502 	ld	h, #0x00
                                    503 ;	spillPairReg hl
                                    504 ;	spillPairReg hl
      000142 29               [ 8]  505 	add	hl, hl
      000143 29               [ 8]  506 	add	hl, hl
      000144 11r00r00         [12]  507 	ld	de, #_shadow_OAM
      000147 19               [ 8]  508 	add	hl, de
      000148 5D               [ 4]  509 	ld	e, l
      000149 54               [ 4]  510 	ld	d, h
                                    511 ;c:\users\john\gbdk-win64\gbdk\include\gb\gb.h:1878: itm->y=y, itm->x=x;
      00014A F8 04            [12]  512 	ldhl	sp,	#4
      00014C 2A               [ 8]  513 	ld	a, (hl+)
      00014D 12               [ 8]  514 	ld	(de), a
      00014E 13               [ 8]  515 	inc	de
                                    516 ;CardboardBox.c:20: move_sprite(character->spriteids[3], character->x, character->y + SPRITE_WIDTH);
      00014F 3A               [ 8]  517 	ld	a, (hl-)
      000150 12               [ 8]  518 	ld	(de), a
      000151 D1               [12]  519 	pop	de
      000152 D5               [16]  520 	push	de
      000153 1A               [ 8]  521 	ld	a, (de)
      000154 C6 08            [ 8]  522 	add	a, #0x08
      000156 32               [ 8]  523 	ld	(hl-), a
      000157 2B               [ 8]  524 	dec	hl
      000158 2A               [ 8]  525 	ld	a, (hl+)
      000159 5F               [ 4]  526 	ld	e, a
      00015A 2A               [ 8]  527 	ld	a, (hl+)
      00015B 23               [ 8]  528 	inc	hl
      00015C 57               [ 4]  529 	ld	d, a
      00015D 1A               [ 8]  530 	ld	a, (de)
      00015E 77               [ 8]  531 	ld	(hl), a
      00015F 69               [ 4]  532 	ld	l, c
                                    533 ;	spillPairReg hl
                                    534 ;	spillPairReg hl
      000160 60               [ 4]  535 	ld	h, b
                                    536 ;	spillPairReg hl
                                    537 ;	spillPairReg hl
      000161 23               [ 8]  538 	inc	hl
      000162 23               [ 8]  539 	inc	hl
      000163 23               [ 8]  540 	inc	hl
                                    541 ;c:\users\john\gbdk-win64\gbdk\include\gb\gb.h:1877: OAM_item_t * itm = &shadow_OAM[nb];
      000164 6E               [ 8]  542 	ld	l, (hl)
                                    543 ;	spillPairReg hl
                                    544 ;	spillPairReg hl
      000165 26 00            [ 8]  545 	ld	h, #0x00
                                    546 ;	spillPairReg hl
                                    547 ;	spillPairReg hl
      000167 29               [ 8]  548 	add	hl, hl
      000168 29               [ 8]  549 	add	hl, hl
      000169 11r00r00         [12]  550 	ld	de, #_shadow_OAM
      00016C 19               [ 8]  551 	add	hl, de
      00016D 5D               [ 4]  552 	ld	e, l
      00016E 54               [ 4]  553 	ld	d, h
                                    554 ;c:\users\john\gbdk-win64\gbdk\include\gb\gb.h:1878: itm->y=y, itm->x=x;
      00016F F8 04            [12]  555 	ldhl	sp,	#4
      000171 2A               [ 8]  556 	ld	a, (hl+)
      000172 12               [ 8]  557 	ld	(de), a
      000173 13               [ 8]  558 	inc	de
                                    559 ;CardboardBox.c:21: move_sprite(character->spriteids[4], character->x + SPRITE_WIDTH, character->y + SPRITE_WIDTH);
      000174 3A               [ 8]  560 	ld	a, (hl-)
      000175 12               [ 8]  561 	ld	(de), a
      000176 D1               [12]  562 	pop	de
      000177 D5               [16]  563 	push	de
      000178 1A               [ 8]  564 	ld	a, (de)
      000179 C6 08            [ 8]  565 	add	a, #0x08
      00017B 32               [ 8]  566 	ld	(hl-), a
      00017C 2B               [ 8]  567 	dec	hl
      00017D 2A               [ 8]  568 	ld	a, (hl+)
      00017E 5F               [ 4]  569 	ld	e, a
      00017F 2A               [ 8]  570 	ld	a, (hl+)
      000180 23               [ 8]  571 	inc	hl
      000181 57               [ 4]  572 	ld	d, a
      000182 1A               [ 8]  573 	ld	a, (de)
      000183 C6 08            [ 8]  574 	add	a, #0x08
      000185 77               [ 8]  575 	ld	(hl), a
      000186 21 04 00         [12]  576 	ld	hl, #0x0004
      000189 09               [ 8]  577 	add	hl, bc
                                    578 ;c:\users\john\gbdk-win64\gbdk\include\gb\gb.h:1877: OAM_item_t * itm = &shadow_OAM[nb];
      00018A 6E               [ 8]  579 	ld	l, (hl)
                                    580 ;	spillPairReg hl
                                    581 ;	spillPairReg hl
      00018B 26 00            [ 8]  582 	ld	h, #0x00
                                    583 ;	spillPairReg hl
                                    584 ;	spillPairReg hl
      00018D 29               [ 8]  585 	add	hl, hl
      00018E 29               [ 8]  586 	add	hl, hl
      00018F 11r00r00         [12]  587 	ld	de, #_shadow_OAM
      000192 19               [ 8]  588 	add	hl, de
      000193 5D               [ 4]  589 	ld	e, l
      000194 54               [ 4]  590 	ld	d, h
                                    591 ;c:\users\john\gbdk-win64\gbdk\include\gb\gb.h:1878: itm->y=y, itm->x=x;
      000195 F8 04            [12]  592 	ldhl	sp,	#4
      000197 2A               [ 8]  593 	ld	a, (hl+)
      000198 12               [ 8]  594 	ld	(de), a
      000199 13               [ 8]  595 	inc	de
      00019A 7E               [ 8]  596 	ld	a, (hl)
      00019B 12               [ 8]  597 	ld	(de), a
                                    598 ;CardboardBox.c:22: move_sprite(character->spriteids[5], character->x + SPRITE_WIDTH * 2, character->y + SPRITE_WIDTH);
      00019C D1               [12]  599 	pop	de
      00019D D5               [16]  600 	push	de
      00019E 1A               [ 8]  601 	ld	a, (de)
      00019F C6 08            [ 8]  602 	add	a, #0x08
      0001A1 32               [ 8]  603 	ld	(hl-), a
      0001A2 2B               [ 8]  604 	dec	hl
      0001A3 2B               [ 8]  605 	dec	hl
      0001A4 2A               [ 8]  606 	ld	a, (hl+)
      0001A5 5F               [ 4]  607 	ld	e, a
      0001A6 56               [ 8]  608 	ld	d, (hl)
      0001A7 1A               [ 8]  609 	ld	a, (de)
      0001A8 C6 10            [ 8]  610 	add	a, #0x10
      0001AA 5F               [ 4]  611 	ld	e, a
      0001AB 21 05 00         [12]  612 	ld	hl, #0x0005
      0001AE 09               [ 8]  613 	add	hl, bc
                                    614 ;c:\users\john\gbdk-win64\gbdk\include\gb\gb.h:1877: OAM_item_t * itm = &shadow_OAM[nb];
      0001AF 6E               [ 8]  615 	ld	l, (hl)
      0001B0 01r00r00         [12]  616 	ld	bc, #_shadow_OAM+0
                                    617 ;	spillPairReg hl
                                    618 ;	spillPairReg hl
      0001B3 26 00            [ 8]  619 	ld	h, #0x00
                                    620 ;	spillPairReg hl
                                    621 ;	spillPairReg hl
      0001B5 29               [ 8]  622 	add	hl, hl
      0001B6 29               [ 8]  623 	add	hl, hl
      0001B7 09               [ 8]  624 	add	hl, bc
      0001B8 4D               [ 4]  625 	ld	c, l
      0001B9 44               [ 4]  626 	ld	b, h
                                    627 ;c:\users\john\gbdk-win64\gbdk\include\gb\gb.h:1878: itm->y=y, itm->x=x;
      0001BA F8 05            [12]  628 	ldhl	sp,	#5
      0001BC 7E               [ 8]  629 	ld	a, (hl)
      0001BD 02               [ 8]  630 	ld	(bc), a
      0001BE 03               [ 8]  631 	inc	bc
      0001BF 7B               [ 4]  632 	ld	a, e
      0001C0 02               [ 8]  633 	ld	(bc), a
                                    634 ;CardboardBox.c:22: move_sprite(character->spriteids[5], character->x + SPRITE_WIDTH * 2, character->y + SPRITE_WIDTH);
                                    635 ;CardboardBox.c:23: }
      0001C1 E8 06            [16]  636 	add	sp, #6
      0001C3 C9               [16]  637 	ret
                                    638 ;CardboardBox.c:25: void Destroy_Box(struct CardboardBox* bouncer){
                                    639 ;	---------------------------------
                                    640 ; Function Destroy_Box
                                    641 ; ---------------------------------
      0001C4                        642 _Destroy_Box::
      0001C4 D5               [16]  643 	push	de
                                    644 ;CardboardBox.c:26: for(int i = 0; i < 6; i++){
      0001C5 01 00 00         [12]  645 	ld	bc, #0x0000
      0001C8                        646 00104$:
      0001C8 79               [ 4]  647 	ld	a, c
      0001C9 D6 06            [ 8]  648 	sub	a, #0x06
      0001CB 78               [ 4]  649 	ld	a, b
      0001CC 17               [ 4]  650 	rla
      0001CD 3F               [ 4]  651 	ccf
      0001CE 1F               [ 4]  652 	rra
      0001CF DE 80            [ 8]  653 	sbc	a, #0x80
      0001D1 30 17            [12]  654 	jr	NC, 00106$
                                    655 ;CardboardBox.c:27: set_sprite_tile(bouncer->spriteids[i], 0x7F);
      0001D3 E1               [12]  656 	pop	hl
      0001D4 E5               [16]  657 	push	hl
      0001D5 09               [ 8]  658 	add	hl, bc
      0001D6 5D               [ 4]  659 	ld	e, l
      0001D7 54               [ 4]  660 	ld	d, h
      0001D8 1A               [ 8]  661 	ld	a, (de)
      0001D9 5F               [ 4]  662 	ld	e, a
                                    663 ;c:\users\john\gbdk-win64\gbdk\include\gb\gb.h:1804: shadow_OAM[nb].tile=tile;
      0001DA 26 00            [ 8]  664 	ld	h, #0x00
                                    665 ;	spillPairReg hl
                                    666 ;	spillPairReg hl
      0001DC 6B               [ 4]  667 	ld	l, e
      0001DD 29               [ 8]  668 	add	hl, hl
      0001DE 29               [ 8]  669 	add	hl, hl
      0001DF 11r00r00         [12]  670 	ld	de, #_shadow_OAM
      0001E2 19               [ 8]  671 	add	hl, de
      0001E3 23               [ 8]  672 	inc	hl
      0001E4 23               [ 8]  673 	inc	hl
      0001E5 36 7F            [12]  674 	ld	(hl), #0x7f
                                    675 ;CardboardBox.c:26: for(int i = 0; i < 6; i++){
      0001E7 03               [ 8]  676 	inc	bc
      0001E8 18 DE            [12]  677 	jr	00104$
      0001EA                        678 00106$:
                                    679 ;CardboardBox.c:29: }
      0001EA 33               [ 8]  680 	inc	sp
      0001EB 33               [ 8]  681 	inc	sp
      0001EC C9               [16]  682 	ret
                                    683 ;Bouncer.c:14: void Move_Bouncer(struct Bouncer* character){
                                    684 ;	---------------------------------
                                    685 ; Function Move_Bouncer
                                    686 ; ---------------------------------
      0001ED                        687 _Move_Bouncer::
      0001ED E8 F9            [16]  688 	add	sp, #-7
      0001EF 4B               [ 4]  689 	ld	c, e
      0001F0 42               [ 4]  690 	ld	b, d
                                    691 ;Bouncer.c:16: move_sprite(character->spriteids[0], character->x, character->y);
      0001F1 69               [ 4]  692 	ld	l, c
      0001F2 60               [ 4]  693 	ld	h, b
      0001F3 23               [ 8]  694 	inc	hl
      0001F4 33               [ 8]  695 	inc	sp
      0001F5 33               [ 8]  696 	inc	sp
      0001F6 5D               [ 4]  697 	ld	e, l
      0001F7 54               [ 4]  698 	ld	d, h
      0001F8 D5               [16]  699 	push	de
      0001F9 1A               [ 8]  700 	ld	a, (de)
      0001FA F8 02            [12]  701 	ldhl	sp,	#2
      0001FC 22               [ 8]  702 	ld	(hl+), a
      0001FD 0A               [ 8]  703 	ld	a, (bc)
      0001FE 77               [ 8]  704 	ld	(hl), a
      0001FF 21 03 00         [12]  705 	ld	hl, #0x0003
      000202 09               [ 8]  706 	add	hl, bc
      000203 E5               [16]  707 	push	hl
      000204 7D               [ 4]  708 	ld	a, l
      000205 F8 06            [12]  709 	ldhl	sp,	#6
      000207 77               [ 8]  710 	ld	(hl), a
      000208 E1               [12]  711 	pop	hl
      000209 7C               [ 4]  712 	ld	a, h
      00020A F8 05            [12]  713 	ldhl	sp,	#5
      00020C 32               [ 8]  714 	ld	(hl-), a
      00020D 2A               [ 8]  715 	ld	a, (hl+)
      00020E 5F               [ 4]  716 	ld	e, a
      00020F 2A               [ 8]  717 	ld	a, (hl+)
      000210 57               [ 4]  718 	ld	d, a
      000211 1A               [ 8]  719 	ld	a, (de)
      000212 77               [ 8]  720 	ld	(hl), a
                                    721 ;c:\users\john\gbdk-win64\gbdk\include\gb\gb.h:1877: OAM_item_t * itm = &shadow_OAM[nb];
      000213 6E               [ 8]  722 	ld	l, (hl)
      000214 26 00            [ 8]  723 	ld	h, #0x00
      000216 29               [ 8]  724 	add	hl, hl
      000217 29               [ 8]  725 	add	hl, hl
      000218 11r00r00         [12]  726 	ld	de, #_shadow_OAM
      00021B 19               [ 8]  727 	add	hl, de
      00021C 5D               [ 4]  728 	ld	e, l
      00021D 54               [ 4]  729 	ld	d, h
                                    730 ;c:\users\john\gbdk-win64\gbdk\include\gb\gb.h:1878: itm->y=y, itm->x=x;
      00021E F8 02            [12]  731 	ldhl	sp,	#2
      000220 2A               [ 8]  732 	ld	a, (hl+)
      000221 12               [ 8]  733 	ld	(de), a
      000222 13               [ 8]  734 	inc	de
      000223 7E               [ 8]  735 	ld	a, (hl)
      000224 12               [ 8]  736 	ld	(de), a
                                    737 ;Bouncer.c:17: move_sprite(character->spriteids[1], character->x + SPRITE_WIDTH, character->y);
      000225 D1               [12]  738 	pop	de
      000226 D5               [16]  739 	push	de
      000227 1A               [ 8]  740 	ld	a, (de)
      000228 77               [ 8]  741 	ld	(hl), a
      000229 0A               [ 8]  742 	ld	a, (bc)
      00022A C6 08            [ 8]  743 	add	a, #0x08
      00022C F8 06            [12]  744 	ldhl	sp,	#6
      00022E 32               [ 8]  745 	ld	(hl-), a
      00022F 2B               [ 8]  746 	dec	hl
      000230 2A               [ 8]  747 	ld	a, (hl+)
      000231 5F               [ 4]  748 	ld	e, a
      000232 56               [ 8]  749 	ld	d, (hl)
      000233 13               [ 8]  750 	inc	de
      000234 1A               [ 8]  751 	ld	a, (de)
                                    752 ;c:\users\john\gbdk-win64\gbdk\include\gb\gb.h:1877: OAM_item_t * itm = &shadow_OAM[nb];
      000235 6F               [ 4]  753 	ld	l, a
                                    754 ;	spillPairReg hl
                                    755 ;	spillPairReg hl
      000236 26 00            [ 8]  756 	ld	h, #0x00
                                    757 ;	spillPairReg hl
                                    758 ;	spillPairReg hl
      000238 29               [ 8]  759 	add	hl, hl
      000239 29               [ 8]  760 	add	hl, hl
      00023A 11r00r00         [12]  761 	ld	de, #_shadow_OAM
      00023D 19               [ 8]  762 	add	hl, de
      00023E 5D               [ 4]  763 	ld	e, l
      00023F 54               [ 4]  764 	ld	d, h
                                    765 ;c:\users\john\gbdk-win64\gbdk\include\gb\gb.h:1878: itm->y=y, itm->x=x;
      000240 F8 03            [12]  766 	ldhl	sp,	#3
      000242 7E               [ 8]  767 	ld	a, (hl)
      000243 12               [ 8]  768 	ld	(de), a
      000244 13               [ 8]  769 	inc	de
      000245 F8 06            [12]  770 	ldhl	sp,	#6
      000247 7E               [ 8]  771 	ld	a, (hl)
      000248 12               [ 8]  772 	ld	(de), a
                                    773 ;Bouncer.c:18: move_sprite(character->spriteids[2], character->x, character->y + SPRITE_WIDTH);
      000249 D1               [12]  774 	pop	de
      00024A D5               [16]  775 	push	de
      00024B 1A               [ 8]  776 	ld	a, (de)
      00024C C6 08            [ 8]  777 	add	a, #0x08
      00024E 5F               [ 4]  778 	ld	e, a
      00024F 0A               [ 8]  779 	ld	a, (bc)
      000250 32               [ 8]  780 	ld	(hl-), a
                                    781 ;	spillPairReg hl
                                    782 ;	spillPairReg hl
      000251 3A               [ 8]  783 	ld	a, (hl-)
      000252 6E               [ 8]  784 	ld	l, (hl)
      000253 67               [ 4]  785 	ld	h, a
                                    786 ;	spillPairReg hl
                                    787 ;	spillPairReg hl
      000254 23               [ 8]  788 	inc	hl
      000255 23               [ 8]  789 	inc	hl
      000256 56               [ 8]  790 	ld	d, (hl)
                                    791 ;c:\users\john\gbdk-win64\gbdk\include\gb\gb.h:1877: OAM_item_t * itm = &shadow_OAM[nb];
      000257 6A               [ 4]  792 	ld	l, d
                                    793 ;	spillPairReg hl
                                    794 ;	spillPairReg hl
      000258 26 00            [ 8]  795 	ld	h, #0x00
                                    796 ;	spillPairReg hl
                                    797 ;	spillPairReg hl
      00025A 29               [ 8]  798 	add	hl, hl
      00025B 29               [ 8]  799 	add	hl, hl
      00025C D5               [16]  800 	push	de
      00025D 11r00r00         [12]  801 	ld	de, #_shadow_OAM
      000260 19               [ 8]  802 	add	hl, de
      000261 D1               [12]  803 	pop	de
                                    804 ;c:\users\john\gbdk-win64\gbdk\include\gb\gb.h:1878: itm->y=y, itm->x=x;
      000262 7B               [ 4]  805 	ld	a, e
      000263 22               [ 8]  806 	ld	(hl+), a
      000264 5D               [ 4]  807 	ld	e, l
      000265 54               [ 4]  808 	ld	d, h
      000266 F8 06            [12]  809 	ldhl	sp,	#6
      000268 7E               [ 8]  810 	ld	a, (hl)
      000269 12               [ 8]  811 	ld	(de), a
                                    812 ;Bouncer.c:19: move_sprite(character->spriteids[3], character->x + SPRITE_WIDTH, character->y + SPRITE_WIDTH);
      00026A D1               [12]  813 	pop	de
      00026B D5               [16]  814 	push	de
      00026C 1A               [ 8]  815 	ld	a, (de)
      00026D C6 08            [ 8]  816 	add	a, #0x08
      00026F 5F               [ 4]  817 	ld	e, a
      000270 0A               [ 8]  818 	ld	a, (bc)
      000271 C6 08            [ 8]  819 	add	a, #0x08
      000273 32               [ 8]  820 	ld	(hl-), a
                                    821 ;	spillPairReg hl
                                    822 ;	spillPairReg hl
      000274 3A               [ 8]  823 	ld	a, (hl-)
      000275 6E               [ 8]  824 	ld	l, (hl)
      000276 67               [ 4]  825 	ld	h, a
                                    826 ;	spillPairReg hl
                                    827 ;	spillPairReg hl
      000277 23               [ 8]  828 	inc	hl
      000278 23               [ 8]  829 	inc	hl
      000279 23               [ 8]  830 	inc	hl
      00027A 56               [ 8]  831 	ld	d, (hl)
                                    832 ;c:\users\john\gbdk-win64\gbdk\include\gb\gb.h:1877: OAM_item_t * itm = &shadow_OAM[nb];
      00027B 6A               [ 4]  833 	ld	l, d
                                    834 ;	spillPairReg hl
                                    835 ;	spillPairReg hl
      00027C 26 00            [ 8]  836 	ld	h, #0x00
                                    837 ;	spillPairReg hl
                                    838 ;	spillPairReg hl
      00027E 29               [ 8]  839 	add	hl, hl
      00027F 29               [ 8]  840 	add	hl, hl
      000280 D5               [16]  841 	push	de
      000281 11r00r00         [12]  842 	ld	de, #_shadow_OAM
      000284 19               [ 8]  843 	add	hl, de
      000285 D1               [12]  844 	pop	de
                                    845 ;c:\users\john\gbdk-win64\gbdk\include\gb\gb.h:1878: itm->y=y, itm->x=x;
      000286 7B               [ 4]  846 	ld	a, e
      000287 22               [ 8]  847 	ld	(hl+), a
      000288 5D               [ 4]  848 	ld	e, l
      000289 54               [ 4]  849 	ld	d, h
      00028A F8 06            [12]  850 	ldhl	sp,	#6
      00028C 7E               [ 8]  851 	ld	a, (hl)
      00028D 12               [ 8]  852 	ld	(de), a
                                    853 ;Bouncer.c:20: move_sprite(character->spriteids[4], character->x, character->y + SPRITE_WIDTH * 2);
      00028E D1               [12]  854 	pop	de
      00028F D5               [16]  855 	push	de
      000290 1A               [ 8]  856 	ld	a, (de)
      000291 C6 10            [ 8]  857 	add	a, #0x10
      000293 F8 03            [12]  858 	ldhl	sp,	#3
      000295 77               [ 8]  859 	ld	(hl), a
      000296 0A               [ 8]  860 	ld	a, (bc)
      000297 F8 06            [12]  861 	ldhl	sp,	#6
      000299 32               [ 8]  862 	ld	(hl-), a
      00029A 2B               [ 8]  863 	dec	hl
      00029B 2A               [ 8]  864 	ld	a, (hl+)
      00029C 5F               [ 4]  865 	ld	e, a
      00029D 56               [ 8]  866 	ld	d, (hl)
      00029E 21 04 00         [12]  867 	ld	hl, #0x0004
      0002A1 19               [ 8]  868 	add	hl, de
      0002A2 5D               [ 4]  869 	ld	e, l
      0002A3 54               [ 4]  870 	ld	d, h
      0002A4 1A               [ 8]  871 	ld	a, (de)
                                    872 ;c:\users\john\gbdk-win64\gbdk\include\gb\gb.h:1877: OAM_item_t * itm = &shadow_OAM[nb];
      0002A5 6F               [ 4]  873 	ld	l, a
                                    874 ;	spillPairReg hl
                                    875 ;	spillPairReg hl
      0002A6 26 00            [ 8]  876 	ld	h, #0x00
                                    877 ;	spillPairReg hl
                                    878 ;	spillPairReg hl
      0002A8 29               [ 8]  879 	add	hl, hl
      0002A9 29               [ 8]  880 	add	hl, hl
      0002AA 11r00r00         [12]  881 	ld	de, #_shadow_OAM
      0002AD 19               [ 8]  882 	add	hl, de
      0002AE 5D               [ 4]  883 	ld	e, l
      0002AF 54               [ 4]  884 	ld	d, h
                                    885 ;c:\users\john\gbdk-win64\gbdk\include\gb\gb.h:1878: itm->y=y, itm->x=x;
      0002B0 F8 03            [12]  886 	ldhl	sp,	#3
      0002B2 7E               [ 8]  887 	ld	a, (hl)
      0002B3 12               [ 8]  888 	ld	(de), a
      0002B4 13               [ 8]  889 	inc	de
      0002B5 F8 06            [12]  890 	ldhl	sp,	#6
                                    891 ;Bouncer.c:21: move_sprite(character->spriteids[5], character->x + SPRITE_WIDTH, character->y + SPRITE_WIDTH * 2);
      0002B7 3A               [ 8]  892 	ld	a, (hl-)
      0002B8 2B               [ 8]  893 	dec	hl
      0002B9 12               [ 8]  894 	ld	(de), a
      0002BA D1               [12]  895 	pop	de
      0002BB D5               [16]  896 	push	de
      0002BC 1A               [ 8]  897 	ld	a, (de)
      0002BD C6 10            [ 8]  898 	add	a, #0x10
      0002BF 57               [ 4]  899 	ld	d, a
      0002C0 0A               [ 8]  900 	ld	a, (bc)
      0002C1 C6 08            [ 8]  901 	add	a, #0x08
      0002C3 5F               [ 4]  902 	ld	e, a
      0002C4 D5               [16]  903 	push	de
      0002C5 2A               [ 8]  904 	ld	a, (hl+)
      0002C6 5F               [ 4]  905 	ld	e, a
      0002C7 56               [ 8]  906 	ld	d, (hl)
      0002C8 21 05 00         [12]  907 	ld	hl, #0x0005
      0002CB 19               [ 8]  908 	add	hl, de
      0002CC D1               [12]  909 	pop	de
      0002CD 4D               [ 4]  910 	ld	c, l
      0002CE 44               [ 4]  911 	ld	b, h
      0002CF 0A               [ 8]  912 	ld	a, (bc)
                                    913 ;c:\users\john\gbdk-win64\gbdk\include\gb\gb.h:1877: OAM_item_t * itm = &shadow_OAM[nb];
      0002D0 6F               [ 4]  914 	ld	l, a
                                    915 ;	spillPairReg hl
                                    916 ;	spillPairReg hl
      0002D1 26 00            [ 8]  917 	ld	h, #0x00
                                    918 ;	spillPairReg hl
                                    919 ;	spillPairReg hl
      0002D3 29               [ 8]  920 	add	hl, hl
      0002D4 29               [ 8]  921 	add	hl, hl
      0002D5 01r00r00         [12]  922 	ld	bc, #_shadow_OAM
      0002D8 09               [ 8]  923 	add	hl, bc
                                    924 ;c:\users\john\gbdk-win64\gbdk\include\gb\gb.h:1878: itm->y=y, itm->x=x;
      0002D9 7A               [ 4]  925 	ld	a, d
      0002DA 22               [ 8]  926 	ld	(hl+), a
      0002DB 73               [ 8]  927 	ld	(hl), e
                                    928 ;Bouncer.c:21: move_sprite(character->spriteids[5], character->x + SPRITE_WIDTH, character->y + SPRITE_WIDTH * 2);
                                    929 ;Bouncer.c:22: }
      0002DC E8 07            [16]  930 	add	sp, #7
      0002DE C9               [16]  931 	ret
                                    932 ;Bouncer.c:24: void Destroy_Bouncer(struct Bouncer* bouncer){
                                    933 ;	---------------------------------
                                    934 ; Function Destroy_Bouncer
                                    935 ; ---------------------------------
      0002DF                        936 _Destroy_Bouncer::
      0002DF 3B               [ 8]  937 	dec	sp
      0002E0 3B               [ 8]  938 	dec	sp
                                    939 ;Bouncer.c:25: for(int i = 0; i < 6; i++){
      0002E1 13               [ 8]  940 	inc	de
      0002E2 13               [ 8]  941 	inc	de
      0002E3 13               [ 8]  942 	inc	de
      0002E4 33               [ 8]  943 	inc	sp
      0002E5 33               [ 8]  944 	inc	sp
      0002E6 D5               [16]  945 	push	de
      0002E7 01 00 00         [12]  946 	ld	bc, #0x0000
      0002EA                        947 00104$:
      0002EA 79               [ 4]  948 	ld	a, c
      0002EB D6 06            [ 8]  949 	sub	a, #0x06
      0002ED 78               [ 4]  950 	ld	a, b
      0002EE 17               [ 4]  951 	rla
      0002EF 3F               [ 4]  952 	ccf
      0002F0 1F               [ 4]  953 	rra
      0002F1 DE 80            [ 8]  954 	sbc	a, #0x80
      0002F3 30 17            [12]  955 	jr	NC, 00106$
                                    956 ;Bouncer.c:26: set_sprite_tile(bouncer->spriteids[i], 0x7F);
      0002F5 E1               [12]  957 	pop	hl
      0002F6 E5               [16]  958 	push	hl
      0002F7 09               [ 8]  959 	add	hl, bc
      0002F8 5D               [ 4]  960 	ld	e, l
      0002F9 54               [ 4]  961 	ld	d, h
      0002FA 1A               [ 8]  962 	ld	a, (de)
      0002FB 5F               [ 4]  963 	ld	e, a
                                    964 ;c:\users\john\gbdk-win64\gbdk\include\gb\gb.h:1804: shadow_OAM[nb].tile=tile;
      0002FC 26 00            [ 8]  965 	ld	h, #0x00
                                    966 ;	spillPairReg hl
                                    967 ;	spillPairReg hl
      0002FE 6B               [ 4]  968 	ld	l, e
      0002FF 29               [ 8]  969 	add	hl, hl
      000300 29               [ 8]  970 	add	hl, hl
      000301 11r00r00         [12]  971 	ld	de, #_shadow_OAM
      000304 19               [ 8]  972 	add	hl, de
      000305 23               [ 8]  973 	inc	hl
      000306 23               [ 8]  974 	inc	hl
      000307 36 7F            [12]  975 	ld	(hl), #0x7f
                                    976 ;Bouncer.c:25: for(int i = 0; i < 6; i++){
      000309 03               [ 8]  977 	inc	bc
      00030A 18 DE            [12]  978 	jr	00104$
      00030C                        979 00106$:
                                    980 ;Bouncer.c:28: }
      00030C 33               [ 8]  981 	inc	sp
      00030D 33               [ 8]  982 	inc	sp
      00030E C9               [16]  983 	ret
                                    984 ;Bouncer.c:30: void Run_Bouncer(struct Bouncer* character)
                                    985 ;	---------------------------------
                                    986 ; Function Run_Bouncer
                                    987 ; ---------------------------------
      00030F                        988 _Run_Bouncer::
      00030F E8 F8            [16]  989 	add	sp, #-8
      000311 F8 06            [12]  990 	ldhl	sp,	#6
      000313 7B               [ 4]  991 	ld	a, e
      000314 22               [ 8]  992 	ld	(hl+), a
                                    993 ;Bouncer.c:32: character->timer -= 1;
      000315 7A               [ 4]  994 	ld	a, d
      000316 32               [ 8]  995 	ld	(hl-), a
      000317 2A               [ 8]  996 	ld	a, (hl+)
      000318 5F               [ 4]  997 	ld	e, a
      000319 56               [ 8]  998 	ld	d, (hl)
      00031A 21 0A 00         [12]  999 	ld	hl, #0x000a
      00031D 19               [ 8] 1000 	add	hl, de
      00031E 5D               [ 4] 1001 	ld	e, l
      00031F 54               [ 4] 1002 	ld	d, h
      000320 1A               [ 8] 1003 	ld	a, (de)
      000321 3D               [ 4] 1004 	dec	a
      000322 4F               [ 4] 1005 	ld	c, a
      000323 12               [ 8] 1006 	ld	(de), a
                                   1007 ;Bouncer.c:34: move_sprite(character->Noticeid, character->x, character->y - 8);
      000324 F8 06            [12] 1008 	ldhl	sp,#6
      000326 2A               [ 8] 1009 	ld	a, (hl+)
      000327 5F               [ 4] 1010 	ld	e, a
      000328 56               [ 8] 1011 	ld	d, (hl)
      000329 21 09 00         [12] 1012 	ld	hl, #0x0009
      00032C 19               [ 8] 1013 	add	hl, de
      00032D 5D               [ 4] 1014 	ld	e, l
      00032E 54               [ 4] 1015 	ld	d, h
      00032F 1A               [ 8] 1016 	ld	a, (de)
      000330 F8 05            [12] 1017 	ldhl	sp,	#5
      000332 77               [ 8] 1018 	ld	(hl), a
                                   1019 ;Bouncer.c:33: if(character->timer < 16){
      000333 79               [ 4] 1020 	ld	a, c
      000334 EE 80            [ 8] 1021 	xor	a, #0x80
      000336 D6 90            [ 8] 1022 	sub	a, #0x90
      000338 30 4D            [12] 1023 	jr	NC, 00102$
                                   1024 ;Bouncer.c:34: move_sprite(character->Noticeid, character->x, character->y - 8);
      00033A 23               [ 8] 1025 	inc	hl
      00033B 2A               [ 8] 1026 	ld	a, (hl+)
      00033C 4F               [ 4] 1027 	ld	c, a
      00033D 46               [ 8] 1028 	ld	b, (hl)
      00033E 03               [ 8] 1029 	inc	bc
      00033F 0A               [ 8] 1030 	ld	a, (bc)
      000340 C6 F8            [ 8] 1031 	add	a, #0xf8
      000342 F8 02            [12] 1032 	ldhl	sp,	#2
      000344 77               [ 8] 1033 	ld	(hl), a
      000345 F8 06            [12] 1034 	ldhl	sp,#6
      000347 2A               [ 8] 1035 	ld	a, (hl+)
      000348 5F               [ 4] 1036 	ld	e, a
      000349 56               [ 8] 1037 	ld	d, (hl)
      00034A 1A               [ 8] 1038 	ld	a, (de)
      00034B F8 03            [12] 1039 	ldhl	sp,	#3
                                   1040 ;c:\users\john\gbdk-win64\gbdk\include\gb\gb.h:1877: OAM_item_t * itm = &shadow_OAM[nb];
      00034D 22               [ 8] 1041 	ld	(hl+), a
      00034E 23               [ 8] 1042 	inc	hl
      00034F 3A               [ 8] 1043 	ld	a, (hl-)
      000350 22               [ 8] 1044 	ld	(hl+), a
      000351 AF               [ 4] 1045 	xor	a, a
      000352 32               [ 8] 1046 	ld	(hl-), a
      000353 7E               [ 8] 1047 	ld	a, (hl)
      000354 F8 00            [12] 1048 	ldhl	sp,	#0
      000356 22               [ 8] 1049 	ld	(hl+), a
      000357 36 00            [12] 1050 	ld	(hl), #0x00
      000359 3E 02            [ 8] 1051 	ld	a, #0x02
      00035B                       1052 00115$:
      00035B F8 00            [12] 1053 	ldhl	sp,	#0
      00035D CB 26            [16] 1054 	sla	(hl)
      00035F 23               [ 8] 1055 	inc	hl
      000360 CB 16            [16] 1056 	rl	(hl)
      000362 3D               [ 4] 1057 	dec	a
      000363 20 F6            [12] 1058 	jr	NZ, 00115$
      000365 D1               [12] 1059 	pop	de
      000366 D5               [16] 1060 	push	de
      000367 21r00r00         [12] 1061 	ld	hl, #_shadow_OAM
      00036A 19               [ 8] 1062 	add	hl, de
      00036B E5               [16] 1063 	push	hl
      00036C 7D               [ 4] 1064 	ld	a, l
      00036D F8 06            [12] 1065 	ldhl	sp,	#6
      00036F 77               [ 8] 1066 	ld	(hl), a
      000370 E1               [12] 1067 	pop	hl
      000371 7C               [ 4] 1068 	ld	a, h
      000372 F8 05            [12] 1069 	ldhl	sp,	#5
                                   1070 ;c:\users\john\gbdk-win64\gbdk\include\gb\gb.h:1878: itm->y=y, itm->x=x;
      000374 32               [ 8] 1071 	ld	(hl-), a
      000375 2A               [ 8] 1072 	ld	a, (hl+)
      000376 5F               [ 4] 1073 	ld	e, a
      000377 56               [ 8] 1074 	ld	d, (hl)
      000378 F8 02            [12] 1075 	ldhl	sp,	#2
      00037A 2A               [ 8] 1076 	ld	a, (hl+)
      00037B 23               [ 8] 1077 	inc	hl
      00037C 12               [ 8] 1078 	ld	(de), a
      00037D 2A               [ 8] 1079 	ld	a, (hl+)
      00037E 4F               [ 4] 1080 	ld	c, a
      00037F 3A               [ 8] 1081 	ld	a, (hl-)
      000380 2B               [ 8] 1082 	dec	hl
      000381 47               [ 4] 1083 	ld	b, a
      000382 03               [ 8] 1084 	inc	bc
      000383 7E               [ 8] 1085 	ld	a, (hl)
      000384 02               [ 8] 1086 	ld	(bc), a
                                   1087 ;Bouncer.c:34: move_sprite(character->Noticeid, character->x, character->y - 8);
      000385 18 46            [12] 1088 	jr	00106$
      000387                       1089 00102$:
                                   1090 ;Bouncer.c:37: move_sprite(character->Noticeid, 0, 0);
                                   1091 ;c:\users\john\gbdk-win64\gbdk\include\gb\gb.h:1877: OAM_item_t * itm = &shadow_OAM[nb];
      000387 F8 05            [12] 1092 	ldhl	sp,	#5
      000389 3A               [ 8] 1093 	ld	a, (hl-)
      00038A 22               [ 8] 1094 	ld	(hl+), a
      00038B 36 00            [12] 1095 	ld	(hl), #0x00
      00038D 3E 02            [ 8] 1096 	ld	a, #0x02
      00038F                       1097 00116$:
      00038F F8 04            [12] 1098 	ldhl	sp,	#4
      000391 CB 26            [16] 1099 	sla	(hl)
      000393 23               [ 8] 1100 	inc	hl
      000394 CB 16            [16] 1101 	rl	(hl)
      000396 3D               [ 4] 1102 	dec	a
      000397 20 F6            [12] 1103 	jr	NZ, 00116$
      000399 2B               [ 8] 1104 	dec	hl
      00039A 2A               [ 8] 1105 	ld	a, (hl+)
      00039B 5F               [ 4] 1106 	ld	e, a
      00039C 56               [ 8] 1107 	ld	d, (hl)
      00039D 21r00r00         [12] 1108 	ld	hl, #_shadow_OAM
      0003A0 19               [ 8] 1109 	add	hl, de
      0003A1 E5               [16] 1110 	push	hl
      0003A2 7D               [ 4] 1111 	ld	a, l
      0003A3 F8 04            [12] 1112 	ldhl	sp,	#4
      0003A5 77               [ 8] 1113 	ld	(hl), a
      0003A6 E1               [12] 1114 	pop	hl
      0003A7 7C               [ 4] 1115 	ld	a, h
      0003A8 F8 03            [12] 1116 	ldhl	sp,	#3
      0003AA 32               [ 8] 1117 	ld	(hl-), a
      0003AB 2A               [ 8] 1118 	ld	a, (hl+)
      0003AC 23               [ 8] 1119 	inc	hl
      0003AD 32               [ 8] 1120 	ld	(hl-), a
      0003AE 2A               [ 8] 1121 	ld	a, (hl+)
      0003AF 23               [ 8] 1122 	inc	hl
                                   1123 ;c:\users\john\gbdk-win64\gbdk\include\gb\gb.h:1878: itm->y=y, itm->x=x;
      0003B0 32               [ 8] 1124 	ld	(hl-), a
      0003B1 2A               [ 8] 1125 	ld	a,	(hl+)
      0003B2 66               [ 8] 1126 	ld	h, (hl)
      0003B3 6F               [ 4] 1127 	ld	l, a
      0003B4 36 00            [12] 1128 	ld	(hl), #0x00
      0003B6 F8 04            [12] 1129 	ldhl	sp,#4
      0003B8 2A               [ 8] 1130 	ld	a, (hl+)
      0003B9 5F               [ 4] 1131 	ld	e, a
      0003BA 56               [ 8] 1132 	ld	d, (hl)
      0003BB 6B               [ 4] 1133 	ld	l, e
      0003BC 62               [ 4] 1134 	ld	h, d
      0003BD 23               [ 8] 1135 	inc	hl
      0003BE E5               [16] 1136 	push	hl
      0003BF 7D               [ 4] 1137 	ld	a, l
      0003C0 F8 04            [12] 1138 	ldhl	sp,	#4
      0003C2 77               [ 8] 1139 	ld	(hl), a
      0003C3 E1               [12] 1140 	pop	hl
      0003C4 7C               [ 4] 1141 	ld	a, h
      0003C5 F8 03            [12] 1142 	ldhl	sp,	#3
      0003C7 32               [ 8] 1143 	ld	(hl-), a
      0003C8 2A               [ 8] 1144 	ld	a,	(hl+)
      0003C9 66               [ 8] 1145 	ld	h, (hl)
      0003CA 6F               [ 4] 1146 	ld	l, a
      0003CB 36 00            [12] 1147 	ld	(hl), #0x00
                                   1148 ;Bouncer.c:37: move_sprite(character->Noticeid, 0, 0);
      0003CD                       1149 00106$:
                                   1150 ;Bouncer.c:39: }
      0003CD E8 08            [16] 1151 	add	sp, #8
      0003CF C9               [16] 1152 	ret
                                   1153 ;ClubHeist.c:28: void updateSwitches(void){
                                   1154 ;	---------------------------------
                                   1155 ; Function updateSwitches
                                   1156 ; ---------------------------------
      0003D0                       1157 _updateSwitches::
                                   1158 ;ClubHeist.c:30: SHOW_BKG;
      0003D0 F0r00            [12] 1159 	ldh	a, (_LCDC_REG + 0)
      0003D2 F6 01            [ 8] 1160 	or	a, #0x01
      0003D4 E0r00            [12] 1161 	ldh	(_LCDC_REG + 0), a
                                   1162 ;ClubHeist.c:31: }
      0003D6 C9               [16] 1163 	ret
                                   1164 ;ClubHeist.c:39: void init_player(void){
                                   1165 ;	---------------------------------
                                   1166 ; Function init_player
                                   1167 ; ---------------------------------
      0003D7                       1168 _init_player::
                                   1169 ;ClubHeist.c:40: Player.height = 16;
      0003D7 21r0Ar00         [12] 1170 	ld	hl, #(_Player + 10)
      0003DA 36 10            [12] 1171 	ld	(hl), #0x10
                                   1172 ;ClubHeist.c:41: Player.width = 16;
      0003DC 21r09r00         [12] 1173 	ld	hl, #(_Player + 9)
      0003DF 36 10            [12] 1174 	ld	(hl), #0x10
                                   1175 ;ClubHeist.c:42: Player.x = 16;
      0003E1 21r07r00         [12] 1176 	ld	hl, #(_Player + 7)
      0003E4 36 10            [12] 1177 	ld	(hl), #0x10
                                   1178 ;ClubHeist.c:43: Player.y = 88;
      0003E6 21r08r00         [12] 1179 	ld	hl, #(_Player + 8)
      0003E9 36 58            [12] 1180 	ld	(hl), #0x58
                                   1181 ;ClubHeist.c:44: Player.animFrame = 0;
      0003EB 21r06r00         [12] 1182 	ld	hl, #(_Player + 6)
      0003EE 36 00            [12] 1183 	ld	(hl), #0x00
                                   1184 ;ClubHeist.c:45: set_sprite_tile(spriteIndex, PLAYER_SPRITE_START);
      0003F0 21r8Fr16         [12] 1185 	ld	hl, #_spriteIndex
                                   1186 ;c:\users\john\gbdk-win64\gbdk\include\gb\gb.h:1804: shadow_OAM[nb].tile=tile;
      0003F3 6E               [ 8] 1187 	ld	l, (hl)
      0003F4 01r00r00         [12] 1188 	ld	bc, #_shadow_OAM+0
                                   1189 ;	spillPairReg hl
                                   1190 ;	spillPairReg hl
      0003F7 26 00            [ 8] 1191 	ld	h, #0x00
                                   1192 ;	spillPairReg hl
                                   1193 ;	spillPairReg hl
      0003F9 29               [ 8] 1194 	add	hl, hl
      0003FA 29               [ 8] 1195 	add	hl, hl
      0003FB 09               [ 8] 1196 	add	hl, bc
      0003FC 23               [ 8] 1197 	inc	hl
      0003FD 23               [ 8] 1198 	inc	hl
      0003FE 36 00            [12] 1199 	ld	(hl), #0x00
                                   1200 ;ClubHeist.c:46: Player.spriteids[0] = spriteIndex++;
      000400 21r8Fr16         [12] 1201 	ld	hl, #_spriteIndex
      000403 4E               [ 8] 1202 	ld	c, (hl)
      000404 34               [12] 1203 	inc	(hl)
      000405 21r00r00         [12] 1204 	ld	hl, #_Player
      000408 71               [ 8] 1205 	ld	(hl), c
                                   1206 ;ClubHeist.c:47: set_sprite_tile(spriteIndex, PLAYER_SPRITE_START + 1);
      000409 21r8Fr16         [12] 1207 	ld	hl, #_spriteIndex
                                   1208 ;c:\users\john\gbdk-win64\gbdk\include\gb\gb.h:1804: shadow_OAM[nb].tile=tile;
      00040C 6E               [ 8] 1209 	ld	l, (hl)
      00040D 01r00r00         [12] 1210 	ld	bc, #_shadow_OAM+0
                                   1211 ;	spillPairReg hl
                                   1212 ;	spillPairReg hl
      000410 26 00            [ 8] 1213 	ld	h, #0x00
                                   1214 ;	spillPairReg hl
                                   1215 ;	spillPairReg hl
      000412 29               [ 8] 1216 	add	hl, hl
      000413 29               [ 8] 1217 	add	hl, hl
      000414 09               [ 8] 1218 	add	hl, bc
      000415 23               [ 8] 1219 	inc	hl
      000416 23               [ 8] 1220 	inc	hl
      000417 36 01            [12] 1221 	ld	(hl), #0x01
                                   1222 ;ClubHeist.c:48: Player.spriteids[1] = spriteIndex++;
      000419 21r8Fr16         [12] 1223 	ld	hl, #_spriteIndex
      00041C 4E               [ 8] 1224 	ld	c, (hl)
      00041D 34               [12] 1225 	inc	(hl)
      00041E 21r01r00         [12] 1226 	ld	hl, #(_Player + 1)
      000421 71               [ 8] 1227 	ld	(hl), c
                                   1228 ;ClubHeist.c:49: set_sprite_tile(spriteIndex, PLAYER_SPRITE_START + 2);
      000422 21r8Fr16         [12] 1229 	ld	hl, #_spriteIndex
                                   1230 ;c:\users\john\gbdk-win64\gbdk\include\gb\gb.h:1804: shadow_OAM[nb].tile=tile;
      000425 6E               [ 8] 1231 	ld	l, (hl)
      000426 01r00r00         [12] 1232 	ld	bc, #_shadow_OAM+0
                                   1233 ;	spillPairReg hl
                                   1234 ;	spillPairReg hl
      000429 26 00            [ 8] 1235 	ld	h, #0x00
                                   1236 ;	spillPairReg hl
                                   1237 ;	spillPairReg hl
      00042B 29               [ 8] 1238 	add	hl, hl
      00042C 29               [ 8] 1239 	add	hl, hl
      00042D 09               [ 8] 1240 	add	hl, bc
      00042E 23               [ 8] 1241 	inc	hl
      00042F 23               [ 8] 1242 	inc	hl
      000430 36 02            [12] 1243 	ld	(hl), #0x02
                                   1244 ;ClubHeist.c:50: Player.spriteids[2] = spriteIndex++;
      000432 21r8Fr16         [12] 1245 	ld	hl, #_spriteIndex
      000435 4E               [ 8] 1246 	ld	c, (hl)
      000436 34               [12] 1247 	inc	(hl)
      000437 21r02r00         [12] 1248 	ld	hl, #(_Player + 2)
      00043A 71               [ 8] 1249 	ld	(hl), c
                                   1250 ;ClubHeist.c:51: set_sprite_tile(spriteIndex, PLAYER_SPRITE_START + 3);
      00043B 21r8Fr16         [12] 1251 	ld	hl, #_spriteIndex
                                   1252 ;c:\users\john\gbdk-win64\gbdk\include\gb\gb.h:1804: shadow_OAM[nb].tile=tile;
      00043E 6E               [ 8] 1253 	ld	l, (hl)
      00043F 01r00r00         [12] 1254 	ld	bc, #_shadow_OAM+0
                                   1255 ;	spillPairReg hl
                                   1256 ;	spillPairReg hl
      000442 26 00            [ 8] 1257 	ld	h, #0x00
                                   1258 ;	spillPairReg hl
                                   1259 ;	spillPairReg hl
      000444 29               [ 8] 1260 	add	hl, hl
      000445 29               [ 8] 1261 	add	hl, hl
      000446 09               [ 8] 1262 	add	hl, bc
      000447 23               [ 8] 1263 	inc	hl
      000448 23               [ 8] 1264 	inc	hl
      000449 36 03            [12] 1265 	ld	(hl), #0x03
                                   1266 ;ClubHeist.c:52: Player.spriteids[3] = spriteIndex++;
      00044B 21r8Fr16         [12] 1267 	ld	hl, #_spriteIndex
      00044E 4E               [ 8] 1268 	ld	c, (hl)
      00044F 34               [12] 1269 	inc	(hl)
      000450 21r03r00         [12] 1270 	ld	hl, #(_Player + 3)
      000453 71               [ 8] 1271 	ld	(hl), c
                                   1272 ;ClubHeist.c:53: Move_Character(&Player);
      000454 11r00r00         [12] 1273 	ld	de, #_Player
                                   1274 ;ClubHeist.c:54: }
      000457 C3r00r00         [16] 1275 	jp	_Move_Character
                                   1276 ;ClubHeist.c:56: void init_character(int8_t spriteInd, struct Character *c, int8_t x, int8_t y){
                                   1277 ;	---------------------------------
                                   1278 ; Function init_character
                                   1279 ; ---------------------------------
      00045A                       1280 _init_character::
      00045A 3B               [ 8] 1281 	dec	sp
      00045B 3B               [ 8] 1282 	dec	sp
      00045C F8 01            [12] 1283 	ldhl	sp,	#1
      00045E 77               [ 8] 1284 	ld	(hl), a
                                   1285 ;ClubHeist.c:57: c->height = 16;
      00045F 21 0A 00         [12] 1286 	ld	hl, #0x000a
      000462 19               [ 8] 1287 	add	hl, de
      000463 36 10            [12] 1288 	ld	(hl), #0x10
                                   1289 ;ClubHeist.c:58: c->width = 16;
      000465 21 09 00         [12] 1290 	ld	hl, #0x0009
      000468 19               [ 8] 1291 	add	hl, de
      000469 36 10            [12] 1292 	ld	(hl), #0x10
                                   1293 ;ClubHeist.c:59: c->x = x;
      00046B 21 07 00         [12] 1294 	ld	hl, #0x0007
      00046E 19               [ 8] 1295 	add	hl, de
      00046F 4D               [ 4] 1296 	ld	c, l
      000470 44               [ 4] 1297 	ld	b, h
      000471 F8 04            [12] 1298 	ldhl	sp,	#4
      000473 7E               [ 8] 1299 	ld	a, (hl)
      000474 02               [ 8] 1300 	ld	(bc), a
                                   1301 ;ClubHeist.c:60: c->y = y;
      000475 21 08 00         [12] 1302 	ld	hl, #0x0008
      000478 19               [ 8] 1303 	add	hl, de
      000479 4D               [ 4] 1304 	ld	c, l
      00047A 44               [ 4] 1305 	ld	b, h
      00047B F8 05            [12] 1306 	ldhl	sp,	#5
      00047D 7E               [ 8] 1307 	ld	a, (hl)
      00047E 02               [ 8] 1308 	ld	(bc), a
                                   1309 ;ClubHeist.c:61: set_sprite_tile(spriteIndex, spriteInd);
      00047F 21r8Fr16         [12] 1310 	ld	hl, #_spriteIndex
      000482 4E               [ 8] 1311 	ld	c, (hl)
                                   1312 ;c:\users\john\gbdk-win64\gbdk\include\gb\gb.h:1804: shadow_OAM[nb].tile=tile;
      000483 26 00            [ 8] 1313 	ld	h, #0x00
                                   1314 ;	spillPairReg hl
                                   1315 ;	spillPairReg hl
      000485 69               [ 4] 1316 	ld	l, c
      000486 29               [ 8] 1317 	add	hl, hl
      000487 29               [ 8] 1318 	add	hl, hl
      000488 01r00r00         [12] 1319 	ld	bc, #_shadow_OAM
      00048B 09               [ 8] 1320 	add	hl, bc
      00048C 23               [ 8] 1321 	inc	hl
      00048D 23               [ 8] 1322 	inc	hl
      00048E 4D               [ 4] 1323 	ld	c, l
      00048F 44               [ 4] 1324 	ld	b, h
      000490 F8 01            [12] 1325 	ldhl	sp,	#1
      000492 7E               [ 8] 1326 	ld	a, (hl)
      000493 02               [ 8] 1327 	ld	(bc), a
                                   1328 ;ClubHeist.c:62: c->spriteids[0] = spriteIndex++;
      000494 21r8Fr16         [12] 1329 	ld	hl, #_spriteIndex
      000497 4E               [ 8] 1330 	ld	c, (hl)
      000498 34               [12] 1331 	inc	(hl)
      000499 79               [ 4] 1332 	ld	a, c
      00049A 12               [ 8] 1333 	ld	(de), a
                                   1334 ;ClubHeist.c:63: set_sprite_tile(spriteIndex, spriteInd + 1);
      00049B F8 01            [12] 1335 	ldhl	sp,	#1
      00049D 4E               [ 8] 1336 	ld	c, (hl)
      00049E 0C               [ 4] 1337 	inc	c
      00049F 21r8Fr16         [12] 1338 	ld	hl, #_spriteIndex
                                   1339 ;c:\users\john\gbdk-win64\gbdk\include\gb\gb.h:1804: shadow_OAM[nb].tile=tile;
      0004A2 6E               [ 8] 1340 	ld	l, (hl)
                                   1341 ;	spillPairReg hl
                                   1342 ;	spillPairReg hl
      0004A3 26 00            [ 8] 1343 	ld	h, #0x00
                                   1344 ;	spillPairReg hl
                                   1345 ;	spillPairReg hl
      0004A5 29               [ 8] 1346 	add	hl, hl
      0004A6 29               [ 8] 1347 	add	hl, hl
      0004A7 D5               [16] 1348 	push	de
      0004A8 11r00r00         [12] 1349 	ld	de, #_shadow_OAM
      0004AB 19               [ 8] 1350 	add	hl, de
      0004AC 23               [ 8] 1351 	inc	hl
      0004AD 23               [ 8] 1352 	inc	hl
      0004AE D1               [12] 1353 	pop	de
      0004AF 71               [ 8] 1354 	ld	(hl), c
                                   1355 ;ClubHeist.c:64: c->spriteids[1] = spriteIndex++;
      0004B0 4B               [ 4] 1356 	ld	c, e
      0004B1 42               [ 4] 1357 	ld	b, d
      0004B2 03               [ 8] 1358 	inc	bc
      0004B3 FAr8Fr16         [16] 1359 	ld	a, (#_spriteIndex)
      0004B6 F8 00            [12] 1360 	ldhl	sp,	#0
      0004B8 77               [ 8] 1361 	ld	(hl), a
      0004B9 21r8Fr16         [12] 1362 	ld	hl, #_spriteIndex
      0004BC 34               [12] 1363 	inc	(hl)
      0004BD F8 00            [12] 1364 	ldhl	sp,	#0
                                   1365 ;ClubHeist.c:65: set_sprite_tile(spriteIndex, spriteInd + 2);
      0004BF 2A               [ 8] 1366 	ld	a, (hl+)
      0004C0 02               [ 8] 1367 	ld	(bc), a
      0004C1 4E               [ 8] 1368 	ld	c, (hl)
      0004C2 0C               [ 4] 1369 	inc	c
      0004C3 0C               [ 4] 1370 	inc	c
      0004C4 21r8Fr16         [12] 1371 	ld	hl, #_spriteIndex
                                   1372 ;c:\users\john\gbdk-win64\gbdk\include\gb\gb.h:1804: shadow_OAM[nb].tile=tile;
      0004C7 6E               [ 8] 1373 	ld	l, (hl)
                                   1374 ;	spillPairReg hl
                                   1375 ;	spillPairReg hl
      0004C8 26 00            [ 8] 1376 	ld	h, #0x00
                                   1377 ;	spillPairReg hl
                                   1378 ;	spillPairReg hl
      0004CA 29               [ 8] 1379 	add	hl, hl
      0004CB 29               [ 8] 1380 	add	hl, hl
      0004CC D5               [16] 1381 	push	de
      0004CD 11r00r00         [12] 1382 	ld	de, #_shadow_OAM
      0004D0 19               [ 8] 1383 	add	hl, de
      0004D1 23               [ 8] 1384 	inc	hl
      0004D2 23               [ 8] 1385 	inc	hl
      0004D3 D1               [12] 1386 	pop	de
      0004D4 71               [ 8] 1387 	ld	(hl), c
                                   1388 ;ClubHeist.c:66: c->spriteids[2] = spriteIndex++;
      0004D5 4B               [ 4] 1389 	ld	c, e
      0004D6 42               [ 4] 1390 	ld	b, d
      0004D7 03               [ 8] 1391 	inc	bc
      0004D8 03               [ 8] 1392 	inc	bc
      0004D9 FAr8Fr16         [16] 1393 	ld	a, (#_spriteIndex)
      0004DC F8 00            [12] 1394 	ldhl	sp,	#0
      0004DE 77               [ 8] 1395 	ld	(hl), a
      0004DF 21r8Fr16         [12] 1396 	ld	hl, #_spriteIndex
      0004E2 34               [12] 1397 	inc	(hl)
      0004E3 F8 00            [12] 1398 	ldhl	sp,	#0
                                   1399 ;ClubHeist.c:67: set_sprite_tile(spriteIndex, spriteInd + 3);
      0004E5 2A               [ 8] 1400 	ld	a, (hl+)
      0004E6 02               [ 8] 1401 	ld	(bc), a
      0004E7 4E               [ 8] 1402 	ld	c, (hl)
      0004E8 0C               [ 4] 1403 	inc	c
      0004E9 0C               [ 4] 1404 	inc	c
      0004EA 0C               [ 4] 1405 	inc	c
      0004EB 21r8Fr16         [12] 1406 	ld	hl, #_spriteIndex
                                   1407 ;c:\users\john\gbdk-win64\gbdk\include\gb\gb.h:1804: shadow_OAM[nb].tile=tile;
      0004EE 6E               [ 8] 1408 	ld	l, (hl)
                                   1409 ;	spillPairReg hl
                                   1410 ;	spillPairReg hl
      0004EF 26 00            [ 8] 1411 	ld	h, #0x00
                                   1412 ;	spillPairReg hl
                                   1413 ;	spillPairReg hl
      0004F1 29               [ 8] 1414 	add	hl, hl
      0004F2 29               [ 8] 1415 	add	hl, hl
      0004F3 D5               [16] 1416 	push	de
      0004F4 11r00r00         [12] 1417 	ld	de, #_shadow_OAM
      0004F7 19               [ 8] 1418 	add	hl, de
      0004F8 23               [ 8] 1419 	inc	hl
      0004F9 23               [ 8] 1420 	inc	hl
      0004FA D1               [12] 1421 	pop	de
      0004FB 71               [ 8] 1422 	ld	(hl), c
                                   1423 ;ClubHeist.c:68: c->spriteids[3] = spriteIndex++;
      0004FC 4B               [ 4] 1424 	ld	c, e
      0004FD 42               [ 4] 1425 	ld	b, d
      0004FE 03               [ 8] 1426 	inc	bc
      0004FF 03               [ 8] 1427 	inc	bc
      000500 03               [ 8] 1428 	inc	bc
      000501 FAr8Fr16         [16] 1429 	ld	a, (#_spriteIndex)
      000504 F8 00            [12] 1430 	ldhl	sp,	#0
      000506 77               [ 8] 1431 	ld	(hl), a
      000507 21r8Fr16         [12] 1432 	ld	hl, #_spriteIndex
      00050A 34               [12] 1433 	inc	(hl)
      00050B F8 00            [12] 1434 	ldhl	sp,	#0
      00050D 7E               [ 8] 1435 	ld	a, (hl)
      00050E 02               [ 8] 1436 	ld	(bc), a
                                   1437 ;ClubHeist.c:69: Move_Character(c);
                                   1438 ;ClubHeist.c:70: }
      00050F CDr00r00         [24] 1439 	call	_Move_Character
      000512 E1               [12] 1440 	pop	hl
      000513 E1               [12] 1441 	pop	hl
      000514 F1               [12] 1442 	pop	af
      000515 E9               [ 4] 1443 	jp	(hl)
                                   1444 ;ClubHeist.c:72: void init_cardboard(void){
                                   1445 ;	---------------------------------
                                   1446 ; Function init_cardboard
                                   1447 ; ---------------------------------
      000516                       1448 _init_cardboard::
                                   1449 ;ClubHeist.c:73: Box.height = 16;
      000516 01r0Br00         [12] 1450 	ld	bc, #_Box+0
      000519 21r16r00         [12] 1451 	ld	hl, #(_Box + 11)
      00051C 36 10            [12] 1452 	ld	(hl), #0x10
                                   1453 ;ClubHeist.c:74: Box.width = 24;
      00051E 21r15r00         [12] 1454 	ld	hl, #(_Box + 10)
      000521 36 18            [12] 1455 	ld	(hl), #0x18
                                   1456 ;ClubHeist.c:75: Box.x = 8;
      000523 21r13r00         [12] 1457 	ld	hl, #(_Box + 8)
      000526 36 08            [12] 1458 	ld	(hl), #0x08
                                   1459 ;ClubHeist.c:76: Box.y = 128;
      000528 21r14r00         [12] 1460 	ld	hl, #(_Box + 9)
      00052B 36 80            [12] 1461 	ld	(hl), #0x80
                                   1462 ;c:\users\john\gbdk-win64\gbdk\include\gb\gb.h:1804: shadow_OAM[nb].tile=tile;
      00052D 21r02r00         [12] 1463 	ld	hl, #(_shadow_OAM + 2)
      000530 36 10            [12] 1464 	ld	(hl), #0x10
                                   1465 ;ClubHeist.c:78: Box.spriteids[0] = 0;
      000532 AF               [ 4] 1466 	xor	a, a
      000533 02               [ 8] 1467 	ld	(bc), a
                                   1468 ;c:\users\john\gbdk-win64\gbdk\include\gb\gb.h:1804: shadow_OAM[nb].tile=tile;
      000534 21r06r00         [12] 1469 	ld	hl, #(_shadow_OAM + 6)
      000537 36 11            [12] 1470 	ld	(hl), #0x11
                                   1471 ;ClubHeist.c:80: Box.spriteids[1] = 1;
      000539 21r0Cr00         [12] 1472 	ld	hl, #(_Box + 1)
      00053C 36 01            [12] 1473 	ld	(hl), #0x01
                                   1474 ;c:\users\john\gbdk-win64\gbdk\include\gb\gb.h:1804: shadow_OAM[nb].tile=tile;
      00053E 21r0Ar00         [12] 1475 	ld	hl, #(_shadow_OAM + 10)
      000541 36 12            [12] 1476 	ld	(hl), #0x12
                                   1477 ;ClubHeist.c:82: Box.spriteids[2] = 2;
      000543 21r0Dr00         [12] 1478 	ld	hl, #(_Box + 2)
      000546 36 02            [12] 1479 	ld	(hl), #0x02
                                   1480 ;c:\users\john\gbdk-win64\gbdk\include\gb\gb.h:1804: shadow_OAM[nb].tile=tile;
      000548 21r0Er00         [12] 1481 	ld	hl, #(_shadow_OAM + 14)
      00054B 36 13            [12] 1482 	ld	(hl), #0x13
                                   1483 ;ClubHeist.c:84: Box.spriteids[3] = 3;
      00054D 21r0Er00         [12] 1484 	ld	hl, #(_Box + 3)
      000550 36 03            [12] 1485 	ld	(hl), #0x03
                                   1486 ;c:\users\john\gbdk-win64\gbdk\include\gb\gb.h:1804: shadow_OAM[nb].tile=tile;
      000552 21r12r00         [12] 1487 	ld	hl, #(_shadow_OAM + 18)
      000555 36 14            [12] 1488 	ld	(hl), #0x14
                                   1489 ;ClubHeist.c:86: Box.spriteids[4] = 4;
      000557 21r0Fr00         [12] 1490 	ld	hl, #(_Box + 4)
      00055A 36 04            [12] 1491 	ld	(hl), #0x04
                                   1492 ;c:\users\john\gbdk-win64\gbdk\include\gb\gb.h:1804: shadow_OAM[nb].tile=tile;
      00055C 21r16r00         [12] 1493 	ld	hl, #(_shadow_OAM + 22)
      00055F 36 15            [12] 1494 	ld	(hl), #0x15
                                   1495 ;ClubHeist.c:88: Box.spriteids[5] = 5;
      000561 21r10r00         [12] 1496 	ld	hl, #(_Box + 5)
      000564 36 05            [12] 1497 	ld	(hl), #0x05
                                   1498 ;ClubHeist.c:89: spriteIndex += 6;
      000566 21r8Fr16         [12] 1499 	ld	hl, #_spriteIndex
      000569 7E               [ 8] 1500 	ld	a, (hl)
      00056A C6 06            [ 8] 1501 	add	a, #0x06
      00056C 77               [ 8] 1502 	ld	(hl), a
                                   1503 ;ClubHeist.c:90: Move_Box(&Box);
      00056D 59               [ 4] 1504 	ld	e, c
      00056E 50               [ 4] 1505 	ld	d, b
                                   1506 ;ClubHeist.c:91: }
      00056F C3rD1r00         [16] 1507 	jp	_Move_Box
                                   1508 ;ClubHeist.c:93: void init_bouncer(void){
                                   1509 ;	---------------------------------
                                   1510 ; Function init_bouncer
                                   1511 ; ---------------------------------
      000572                       1512 _init_bouncer::
                                   1513 ;ClubHeist.c:94: Bouncer.timer = rand();
      000572 21r21r00         [12] 1514 	ld	hl, #_Bouncer + 10
      000575 E5               [16] 1515 	push	hl
      000576 CDr00r00         [24] 1516 	call	_rand
      000579 E1               [12] 1517 	pop	hl
      00057A 73               [ 8] 1518 	ld	(hl), e
                                   1519 ;ClubHeist.c:95: if(Bouncer.timer < 64)
      00057B 4E               [ 8] 1520 	ld	c, (hl)
      00057C 79               [ 4] 1521 	ld	a, c
      00057D EE 80            [ 8] 1522 	xor	a, #0x80
      00057F D6 C0            [ 8] 1523 	sub	a, #0xc0
      000581 30 04            [12] 1524 	jr	NC, 00102$
                                   1525 ;ClubHeist.c:96: Bouncer.timer += 64;
      000583 79               [ 4] 1526 	ld	a, c
      000584 C6 40            [ 8] 1527 	add	a, #0x40
      000586 77               [ 8] 1528 	ld	(hl), a
      000587                       1529 00102$:
                                   1530 ;ClubHeist.c:97: Bouncer.x = 96;
      000587 21r17r00         [12] 1531 	ld	hl, #_Bouncer
      00058A 36 60            [12] 1532 	ld	(hl), #0x60
                                   1533 ;ClubHeist.c:98: Bouncer.y = 120;
      00058C 21r18r00         [12] 1534 	ld	hl, #(_Bouncer + 1)
      00058F 36 78            [12] 1535 	ld	(hl), #0x78
                                   1536 ;ClubHeist.c:99: set_sprite_tile(spriteIndex, BOUNCER_SPRITE_INDEX);
      000591 21r8Fr16         [12] 1537 	ld	hl, #_spriteIndex
                                   1538 ;c:\users\john\gbdk-win64\gbdk\include\gb\gb.h:1804: shadow_OAM[nb].tile=tile;
      000594 6E               [ 8] 1539 	ld	l, (hl)
      000595 01r00r00         [12] 1540 	ld	bc, #_shadow_OAM+0
                                   1541 ;	spillPairReg hl
                                   1542 ;	spillPairReg hl
      000598 26 00            [ 8] 1543 	ld	h, #0x00
                                   1544 ;	spillPairReg hl
                                   1545 ;	spillPairReg hl
      00059A 29               [ 8] 1546 	add	hl, hl
      00059B 29               [ 8] 1547 	add	hl, hl
      00059C 09               [ 8] 1548 	add	hl, bc
      00059D 23               [ 8] 1549 	inc	hl
      00059E 23               [ 8] 1550 	inc	hl
      00059F 36 16            [12] 1551 	ld	(hl), #0x16
                                   1552 ;ClubHeist.c:100: Bouncer.spriteids[0] = spriteIndex++;
      0005A1 21r8Fr16         [12] 1553 	ld	hl, #_spriteIndex
      0005A4 4E               [ 8] 1554 	ld	c, (hl)
      0005A5 34               [12] 1555 	inc	(hl)
      0005A6 21r1Ar00         [12] 1556 	ld	hl, #(_Bouncer + 3)
      0005A9 71               [ 8] 1557 	ld	(hl), c
                                   1558 ;ClubHeist.c:101: set_sprite_tile(spriteIndex, BOUNCER_SPRITE_INDEX + 1);
      0005AA 21r8Fr16         [12] 1559 	ld	hl, #_spriteIndex
                                   1560 ;c:\users\john\gbdk-win64\gbdk\include\gb\gb.h:1804: shadow_OAM[nb].tile=tile;
      0005AD 6E               [ 8] 1561 	ld	l, (hl)
      0005AE 01r00r00         [12] 1562 	ld	bc, #_shadow_OAM+0
                                   1563 ;	spillPairReg hl
                                   1564 ;	spillPairReg hl
      0005B1 26 00            [ 8] 1565 	ld	h, #0x00
                                   1566 ;	spillPairReg hl
                                   1567 ;	spillPairReg hl
      0005B3 29               [ 8] 1568 	add	hl, hl
      0005B4 29               [ 8] 1569 	add	hl, hl
      0005B5 09               [ 8] 1570 	add	hl, bc
      0005B6 23               [ 8] 1571 	inc	hl
      0005B7 23               [ 8] 1572 	inc	hl
      0005B8 36 17            [12] 1573 	ld	(hl), #0x17
                                   1574 ;ClubHeist.c:102: Bouncer.spriteids[1] = spriteIndex++;
      0005BA 21r8Fr16         [12] 1575 	ld	hl, #_spriteIndex
      0005BD 4E               [ 8] 1576 	ld	c, (hl)
      0005BE 34               [12] 1577 	inc	(hl)
      0005BF 21r1Br00         [12] 1578 	ld	hl, #(_Bouncer + 4)
      0005C2 71               [ 8] 1579 	ld	(hl), c
                                   1580 ;ClubHeist.c:103: set_sprite_tile(spriteIndex, BOUNCER_SPRITE_INDEX + 2);
      0005C3 21r8Fr16         [12] 1581 	ld	hl, #_spriteIndex
                                   1582 ;c:\users\john\gbdk-win64\gbdk\include\gb\gb.h:1804: shadow_OAM[nb].tile=tile;
      0005C6 6E               [ 8] 1583 	ld	l, (hl)
      0005C7 01r00r00         [12] 1584 	ld	bc, #_shadow_OAM+0
                                   1585 ;	spillPairReg hl
                                   1586 ;	spillPairReg hl
      0005CA 26 00            [ 8] 1587 	ld	h, #0x00
                                   1588 ;	spillPairReg hl
                                   1589 ;	spillPairReg hl
      0005CC 29               [ 8] 1590 	add	hl, hl
      0005CD 29               [ 8] 1591 	add	hl, hl
      0005CE 09               [ 8] 1592 	add	hl, bc
      0005CF 23               [ 8] 1593 	inc	hl
      0005D0 23               [ 8] 1594 	inc	hl
      0005D1 36 18            [12] 1595 	ld	(hl), #0x18
                                   1596 ;ClubHeist.c:104: Bouncer.spriteids[2] = spriteIndex++;
      0005D3 21r8Fr16         [12] 1597 	ld	hl, #_spriteIndex
      0005D6 4E               [ 8] 1598 	ld	c, (hl)
      0005D7 34               [12] 1599 	inc	(hl)
      0005D8 21r1Cr00         [12] 1600 	ld	hl, #(_Bouncer + 5)
      0005DB 71               [ 8] 1601 	ld	(hl), c
                                   1602 ;ClubHeist.c:105: set_sprite_tile(spriteIndex, BOUNCER_SPRITE_INDEX + 3);
      0005DC 21r8Fr16         [12] 1603 	ld	hl, #_spriteIndex
                                   1604 ;c:\users\john\gbdk-win64\gbdk\include\gb\gb.h:1804: shadow_OAM[nb].tile=tile;
      0005DF 6E               [ 8] 1605 	ld	l, (hl)
      0005E0 01r00r00         [12] 1606 	ld	bc, #_shadow_OAM+0
                                   1607 ;	spillPairReg hl
                                   1608 ;	spillPairReg hl
      0005E3 26 00            [ 8] 1609 	ld	h, #0x00
                                   1610 ;	spillPairReg hl
                                   1611 ;	spillPairReg hl
      0005E5 29               [ 8] 1612 	add	hl, hl
      0005E6 29               [ 8] 1613 	add	hl, hl
      0005E7 09               [ 8] 1614 	add	hl, bc
      0005E8 23               [ 8] 1615 	inc	hl
      0005E9 23               [ 8] 1616 	inc	hl
      0005EA 36 19            [12] 1617 	ld	(hl), #0x19
                                   1618 ;ClubHeist.c:106: Bouncer.spriteids[3] = spriteIndex++;
      0005EC 21r8Fr16         [12] 1619 	ld	hl, #_spriteIndex
      0005EF 4E               [ 8] 1620 	ld	c, (hl)
      0005F0 34               [12] 1621 	inc	(hl)
      0005F1 21r1Dr00         [12] 1622 	ld	hl, #(_Bouncer + 6)
      0005F4 71               [ 8] 1623 	ld	(hl), c
                                   1624 ;ClubHeist.c:107: set_sprite_tile(spriteIndex, BOUNCER_SPRITE_INDEX + 4);
      0005F5 21r8Fr16         [12] 1625 	ld	hl, #_spriteIndex
                                   1626 ;c:\users\john\gbdk-win64\gbdk\include\gb\gb.h:1804: shadow_OAM[nb].tile=tile;
      0005F8 6E               [ 8] 1627 	ld	l, (hl)
      0005F9 01r00r00         [12] 1628 	ld	bc, #_shadow_OAM+0
                                   1629 ;	spillPairReg hl
                                   1630 ;	spillPairReg hl
      0005FC 26 00            [ 8] 1631 	ld	h, #0x00
                                   1632 ;	spillPairReg hl
                                   1633 ;	spillPairReg hl
      0005FE 29               [ 8] 1634 	add	hl, hl
      0005FF 29               [ 8] 1635 	add	hl, hl
      000600 09               [ 8] 1636 	add	hl, bc
      000601 23               [ 8] 1637 	inc	hl
      000602 23               [ 8] 1638 	inc	hl
      000603 36 1A            [12] 1639 	ld	(hl), #0x1a
                                   1640 ;ClubHeist.c:108: Bouncer.spriteids[4] = spriteIndex++;
      000605 21r8Fr16         [12] 1641 	ld	hl, #_spriteIndex
      000608 4E               [ 8] 1642 	ld	c, (hl)
      000609 34               [12] 1643 	inc	(hl)
      00060A 21r1Er00         [12] 1644 	ld	hl, #(_Bouncer + 7)
      00060D 71               [ 8] 1645 	ld	(hl), c
                                   1646 ;ClubHeist.c:109: set_sprite_tile(spriteIndex, BOUNCER_SPRITE_INDEX + 5);
      00060E 21r8Fr16         [12] 1647 	ld	hl, #_spriteIndex
                                   1648 ;c:\users\john\gbdk-win64\gbdk\include\gb\gb.h:1804: shadow_OAM[nb].tile=tile;
      000611 6E               [ 8] 1649 	ld	l, (hl)
      000612 01r00r00         [12] 1650 	ld	bc, #_shadow_OAM+0
                                   1651 ;	spillPairReg hl
                                   1652 ;	spillPairReg hl
      000615 26 00            [ 8] 1653 	ld	h, #0x00
                                   1654 ;	spillPairReg hl
                                   1655 ;	spillPairReg hl
      000617 29               [ 8] 1656 	add	hl, hl
      000618 29               [ 8] 1657 	add	hl, hl
      000619 09               [ 8] 1658 	add	hl, bc
      00061A 23               [ 8] 1659 	inc	hl
      00061B 23               [ 8] 1660 	inc	hl
      00061C 36 1B            [12] 1661 	ld	(hl), #0x1b
                                   1662 ;ClubHeist.c:110: Bouncer.spriteids[5] = spriteIndex++;
      00061E 21r8Fr16         [12] 1663 	ld	hl, #_spriteIndex
      000621 4E               [ 8] 1664 	ld	c, (hl)
      000622 34               [12] 1665 	inc	(hl)
      000623 21r1Fr00         [12] 1666 	ld	hl, #(_Bouncer + 8)
      000626 71               [ 8] 1667 	ld	(hl), c
                                   1668 ;ClubHeist.c:111: set_sprite_tile(spriteIndex, 28);
      000627 21r8Fr16         [12] 1669 	ld	hl, #_spriteIndex
                                   1670 ;c:\users\john\gbdk-win64\gbdk\include\gb\gb.h:1804: shadow_OAM[nb].tile=tile;
      00062A 6E               [ 8] 1671 	ld	l, (hl)
      00062B 01r00r00         [12] 1672 	ld	bc, #_shadow_OAM+0
                                   1673 ;	spillPairReg hl
                                   1674 ;	spillPairReg hl
      00062E 26 00            [ 8] 1675 	ld	h, #0x00
                                   1676 ;	spillPairReg hl
                                   1677 ;	spillPairReg hl
      000630 29               [ 8] 1678 	add	hl, hl
      000631 29               [ 8] 1679 	add	hl, hl
      000632 09               [ 8] 1680 	add	hl, bc
      000633 23               [ 8] 1681 	inc	hl
      000634 23               [ 8] 1682 	inc	hl
      000635 36 1C            [12] 1683 	ld	(hl), #0x1c
                                   1684 ;ClubHeist.c:112: Bouncer.Noticeid = spriteIndex++;
      000637 21r8Fr16         [12] 1685 	ld	hl, #_spriteIndex
      00063A 4E               [ 8] 1686 	ld	c, (hl)
      00063B 34               [12] 1687 	inc	(hl)
      00063C 21r20r00         [12] 1688 	ld	hl, #(_Bouncer + 9)
      00063F 71               [ 8] 1689 	ld	(hl), c
                                   1690 ;ClubHeist.c:113: Move_Bouncer(&Bouncer);
      000640 11r17r00         [12] 1691 	ld	de, #_Bouncer
                                   1692 ;ClubHeist.c:114: }
      000643 C3rEDr01         [16] 1693 	jp	_Move_Bouncer
                                   1694 ;ClubHeist.c:116: void animatePlayer(void){
                                   1695 ;	---------------------------------
                                   1696 ; Function animatePlayer
                                   1697 ; ---------------------------------
      000646                       1698 _animatePlayer::
                                   1699 ;ClubHeist.c:117: switch(Player.animFrame){
      000646 21r06r00         [12] 1700 	ld	hl, #(_Player + 6)
      000649 4E               [ 8] 1701 	ld	c, (hl)
      00064A 79               [ 4] 1702 	ld	a, c
      00064B B7               [ 4] 1703 	or	a, a
      00064C 28 13            [12] 1704 	jr	Z, 00101$
      00064E 79               [ 4] 1705 	ld	a, c
      00064F 3D               [ 4] 1706 	dec	a
      000650 28 56            [12] 1707 	jr	Z, 00102$
      000652 79               [ 4] 1708 	ld	a, c
      000653 D6 02            [ 8] 1709 	sub	a, #0x02
      000655 CArEFr06         [16] 1710 	jp	Z,00103$
      000658 79               [ 4] 1711 	ld	a, c
      000659 D6 03            [ 8] 1712 	sub	a, #0x03
      00065B CAr35r07         [16] 1713 	jp	Z,00104$
      00065E C3r79r07         [16] 1714 	jp	00105$
                                   1715 ;ClubHeist.c:118: case 0:
      000661                       1716 00101$:
                                   1717 ;ClubHeist.c:119: set_sprite_tile(Player.spriteids[0], PLAYER_SPRITE_START + 4);
      000661 21r00r00         [12] 1718 	ld	hl, #_Player
      000664 4E               [ 8] 1719 	ld	c, (hl)
                                   1720 ;c:\users\john\gbdk-win64\gbdk\include\gb\gb.h:1804: shadow_OAM[nb].tile=tile;
      000665 26 00            [ 8] 1721 	ld	h, #0x00
                                   1722 ;	spillPairReg hl
                                   1723 ;	spillPairReg hl
      000667 69               [ 4] 1724 	ld	l, c
      000668 29               [ 8] 1725 	add	hl, hl
      000669 29               [ 8] 1726 	add	hl, hl
      00066A 11r00r00         [12] 1727 	ld	de, #_shadow_OAM
      00066D 19               [ 8] 1728 	add	hl, de
      00066E 23               [ 8] 1729 	inc	hl
      00066F 23               [ 8] 1730 	inc	hl
      000670 36 04            [12] 1731 	ld	(hl), #0x04
                                   1732 ;ClubHeist.c:120: set_sprite_tile(Player.spriteids[1], PLAYER_SPRITE_START + 5);
      000672 21r01r00         [12] 1733 	ld	hl, #(_Player + 1)
      000675 4E               [ 8] 1734 	ld	c, (hl)
                                   1735 ;c:\users\john\gbdk-win64\gbdk\include\gb\gb.h:1804: shadow_OAM[nb].tile=tile;
      000676 26 00            [ 8] 1736 	ld	h, #0x00
                                   1737 ;	spillPairReg hl
                                   1738 ;	spillPairReg hl
      000678 69               [ 4] 1739 	ld	l, c
      000679 29               [ 8] 1740 	add	hl, hl
      00067A 29               [ 8] 1741 	add	hl, hl
      00067B 11r00r00         [12] 1742 	ld	de, #_shadow_OAM
      00067E 19               [ 8] 1743 	add	hl, de
      00067F 23               [ 8] 1744 	inc	hl
      000680 23               [ 8] 1745 	inc	hl
      000681 36 05            [12] 1746 	ld	(hl), #0x05
                                   1747 ;ClubHeist.c:121: set_sprite_tile(Player.spriteids[2], PLAYER_SPRITE_START + 6);
      000683 21r02r00         [12] 1748 	ld	hl, #(_Player + 2)
      000686 4E               [ 8] 1749 	ld	c, (hl)
                                   1750 ;c:\users\john\gbdk-win64\gbdk\include\gb\gb.h:1804: shadow_OAM[nb].tile=tile;
      000687 26 00            [ 8] 1751 	ld	h, #0x00
                                   1752 ;	spillPairReg hl
                                   1753 ;	spillPairReg hl
      000689 69               [ 4] 1754 	ld	l, c
      00068A 29               [ 8] 1755 	add	hl, hl
      00068B 29               [ 8] 1756 	add	hl, hl
      00068C 11r00r00         [12] 1757 	ld	de, #_shadow_OAM
      00068F 19               [ 8] 1758 	add	hl, de
      000690 23               [ 8] 1759 	inc	hl
      000691 23               [ 8] 1760 	inc	hl
      000692 36 06            [12] 1761 	ld	(hl), #0x06
                                   1762 ;ClubHeist.c:122: set_sprite_tile(Player.spriteids[3], PLAYER_SPRITE_START + 7);
      000694 21r03r00         [12] 1763 	ld	hl, #(_Player + 3)
      000697 4E               [ 8] 1764 	ld	c, (hl)
                                   1765 ;c:\users\john\gbdk-win64\gbdk\include\gb\gb.h:1804: shadow_OAM[nb].tile=tile;
      000698 26 00            [ 8] 1766 	ld	h, #0x00
                                   1767 ;	spillPairReg hl
                                   1768 ;	spillPairReg hl
      00069A 69               [ 4] 1769 	ld	l, c
      00069B 29               [ 8] 1770 	add	hl, hl
      00069C 29               [ 8] 1771 	add	hl, hl
      00069D 11r00r00         [12] 1772 	ld	de, #_shadow_OAM
      0006A0 19               [ 8] 1773 	add	hl, de
      0006A1 23               [ 8] 1774 	inc	hl
      0006A2 23               [ 8] 1775 	inc	hl
      0006A3 36 07            [12] 1776 	ld	(hl), #0x07
                                   1777 ;ClubHeist.c:123: break;
      0006A5 C3r79r07         [16] 1778 	jp	00105$
                                   1779 ;ClubHeist.c:124: case 1:
      0006A8                       1780 00102$:
                                   1781 ;ClubHeist.c:125: set_sprite_tile(Player.spriteids[0], PLAYER_SPRITE_START);
      0006A8 21r00r00         [12] 1782 	ld	hl, #_Player
      0006AB 4E               [ 8] 1783 	ld	c, (hl)
                                   1784 ;c:\users\john\gbdk-win64\gbdk\include\gb\gb.h:1804: shadow_OAM[nb].tile=tile;
      0006AC 26 00            [ 8] 1785 	ld	h, #0x00
                                   1786 ;	spillPairReg hl
                                   1787 ;	spillPairReg hl
      0006AE 69               [ 4] 1788 	ld	l, c
      0006AF 29               [ 8] 1789 	add	hl, hl
      0006B0 29               [ 8] 1790 	add	hl, hl
      0006B1 11r00r00         [12] 1791 	ld	de, #_shadow_OAM
      0006B4 19               [ 8] 1792 	add	hl, de
      0006B5 23               [ 8] 1793 	inc	hl
      0006B6 23               [ 8] 1794 	inc	hl
      0006B7 36 00            [12] 1795 	ld	(hl), #0x00
                                   1796 ;ClubHeist.c:126: set_sprite_tile(Player.spriteids[1], PLAYER_SPRITE_START + 1);
      0006B9 21r01r00         [12] 1797 	ld	hl, #(_Player + 1)
      0006BC 4E               [ 8] 1798 	ld	c, (hl)
                                   1799 ;c:\users\john\gbdk-win64\gbdk\include\gb\gb.h:1804: shadow_OAM[nb].tile=tile;
      0006BD 26 00            [ 8] 1800 	ld	h, #0x00
                                   1801 ;	spillPairReg hl
                                   1802 ;	spillPairReg hl
      0006BF 69               [ 4] 1803 	ld	l, c
      0006C0 29               [ 8] 1804 	add	hl, hl
      0006C1 29               [ 8] 1805 	add	hl, hl
      0006C2 11r00r00         [12] 1806 	ld	de, #_shadow_OAM
      0006C5 19               [ 8] 1807 	add	hl, de
      0006C6 23               [ 8] 1808 	inc	hl
      0006C7 23               [ 8] 1809 	inc	hl
      0006C8 36 01            [12] 1810 	ld	(hl), #0x01
                                   1811 ;ClubHeist.c:127: set_sprite_tile(Player.spriteids[2], PLAYER_SPRITE_START + 2);
      0006CA 21r02r00         [12] 1812 	ld	hl, #(_Player + 2)
      0006CD 4E               [ 8] 1813 	ld	c, (hl)
                                   1814 ;c:\users\john\gbdk-win64\gbdk\include\gb\gb.h:1804: shadow_OAM[nb].tile=tile;
      0006CE 26 00            [ 8] 1815 	ld	h, #0x00
                                   1816 ;	spillPairReg hl
                                   1817 ;	spillPairReg hl
      0006D0 69               [ 4] 1818 	ld	l, c
      0006D1 29               [ 8] 1819 	add	hl, hl
      0006D2 29               [ 8] 1820 	add	hl, hl
      0006D3 11r00r00         [12] 1821 	ld	de, #_shadow_OAM
      0006D6 19               [ 8] 1822 	add	hl, de
      0006D7 23               [ 8] 1823 	inc	hl
      0006D8 23               [ 8] 1824 	inc	hl
      0006D9 36 02            [12] 1825 	ld	(hl), #0x02
                                   1826 ;ClubHeist.c:128: set_sprite_tile(Player.spriteids[3], PLAYER_SPRITE_START + 3);
      0006DB 21r03r00         [12] 1827 	ld	hl, #(_Player + 3)
      0006DE 4E               [ 8] 1828 	ld	c, (hl)
                                   1829 ;c:\users\john\gbdk-win64\gbdk\include\gb\gb.h:1804: shadow_OAM[nb].tile=tile;
      0006DF 26 00            [ 8] 1830 	ld	h, #0x00
                                   1831 ;	spillPairReg hl
                                   1832 ;	spillPairReg hl
      0006E1 69               [ 4] 1833 	ld	l, c
      0006E2 29               [ 8] 1834 	add	hl, hl
      0006E3 29               [ 8] 1835 	add	hl, hl
      0006E4 11r00r00         [12] 1836 	ld	de, #_shadow_OAM
      0006E7 19               [ 8] 1837 	add	hl, de
      0006E8 23               [ 8] 1838 	inc	hl
      0006E9 23               [ 8] 1839 	inc	hl
      0006EA 36 03            [12] 1840 	ld	(hl), #0x03
                                   1841 ;ClubHeist.c:129: break;
      0006EC C3r79r07         [16] 1842 	jp	00105$
                                   1843 ;ClubHeist.c:130: case 2:
      0006EF                       1844 00103$:
                                   1845 ;ClubHeist.c:131: set_sprite_tile(Player.spriteids[0], PLAYER_SPRITE_START + 8);
      0006EF 21r00r00         [12] 1846 	ld	hl, #_Player
      0006F2 4E               [ 8] 1847 	ld	c, (hl)
                                   1848 ;c:\users\john\gbdk-win64\gbdk\include\gb\gb.h:1804: shadow_OAM[nb].tile=tile;
      0006F3 26 00            [ 8] 1849 	ld	h, #0x00
                                   1850 ;	spillPairReg hl
                                   1851 ;	spillPairReg hl
      0006F5 69               [ 4] 1852 	ld	l, c
      0006F6 29               [ 8] 1853 	add	hl, hl
      0006F7 29               [ 8] 1854 	add	hl, hl
      0006F8 11r00r00         [12] 1855 	ld	de, #_shadow_OAM
      0006FB 19               [ 8] 1856 	add	hl, de
      0006FC 23               [ 8] 1857 	inc	hl
      0006FD 23               [ 8] 1858 	inc	hl
      0006FE 36 08            [12] 1859 	ld	(hl), #0x08
                                   1860 ;ClubHeist.c:132: set_sprite_tile(Player.spriteids[1], PLAYER_SPRITE_START + 9);
      000700 21r01r00         [12] 1861 	ld	hl, #(_Player + 1)
      000703 4E               [ 8] 1862 	ld	c, (hl)
                                   1863 ;c:\users\john\gbdk-win64\gbdk\include\gb\gb.h:1804: shadow_OAM[nb].tile=tile;
      000704 26 00            [ 8] 1864 	ld	h, #0x00
                                   1865 ;	spillPairReg hl
                                   1866 ;	spillPairReg hl
      000706 69               [ 4] 1867 	ld	l, c
      000707 29               [ 8] 1868 	add	hl, hl
      000708 29               [ 8] 1869 	add	hl, hl
      000709 11r00r00         [12] 1870 	ld	de, #_shadow_OAM
      00070C 19               [ 8] 1871 	add	hl, de
      00070D 23               [ 8] 1872 	inc	hl
      00070E 23               [ 8] 1873 	inc	hl
      00070F 36 09            [12] 1874 	ld	(hl), #0x09
                                   1875 ;ClubHeist.c:133: set_sprite_tile(Player.spriteids[2], PLAYER_SPRITE_START + 10);
      000711 21r02r00         [12] 1876 	ld	hl, #(_Player + 2)
      000714 4E               [ 8] 1877 	ld	c, (hl)
                                   1878 ;c:\users\john\gbdk-win64\gbdk\include\gb\gb.h:1804: shadow_OAM[nb].tile=tile;
      000715 26 00            [ 8] 1879 	ld	h, #0x00
                                   1880 ;	spillPairReg hl
                                   1881 ;	spillPairReg hl
      000717 69               [ 4] 1882 	ld	l, c
      000718 29               [ 8] 1883 	add	hl, hl
      000719 29               [ 8] 1884 	add	hl, hl
      00071A 11r00r00         [12] 1885 	ld	de, #_shadow_OAM
      00071D 19               [ 8] 1886 	add	hl, de
      00071E 23               [ 8] 1887 	inc	hl
      00071F 23               [ 8] 1888 	inc	hl
      000720 36 0A            [12] 1889 	ld	(hl), #0x0a
                                   1890 ;ClubHeist.c:134: set_sprite_tile(Player.spriteids[3], PLAYER_SPRITE_START + 11);
      000722 21r03r00         [12] 1891 	ld	hl, #(_Player + 3)
      000725 4E               [ 8] 1892 	ld	c, (hl)
                                   1893 ;c:\users\john\gbdk-win64\gbdk\include\gb\gb.h:1804: shadow_OAM[nb].tile=tile;
      000726 26 00            [ 8] 1894 	ld	h, #0x00
                                   1895 ;	spillPairReg hl
                                   1896 ;	spillPairReg hl
      000728 69               [ 4] 1897 	ld	l, c
      000729 29               [ 8] 1898 	add	hl, hl
      00072A 29               [ 8] 1899 	add	hl, hl
      00072B 11r00r00         [12] 1900 	ld	de, #_shadow_OAM
      00072E 19               [ 8] 1901 	add	hl, de
      00072F 23               [ 8] 1902 	inc	hl
      000730 23               [ 8] 1903 	inc	hl
      000731 36 0B            [12] 1904 	ld	(hl), #0x0b
                                   1905 ;ClubHeist.c:135: break;
      000733 18 44            [12] 1906 	jr	00105$
                                   1907 ;ClubHeist.c:136: case 3:
      000735                       1908 00104$:
                                   1909 ;ClubHeist.c:137: set_sprite_tile(Player.spriteids[0], PLAYER_SPRITE_START);
      000735 21r00r00         [12] 1910 	ld	hl, #_Player
      000738 4E               [ 8] 1911 	ld	c, (hl)
                                   1912 ;c:\users\john\gbdk-win64\gbdk\include\gb\gb.h:1804: shadow_OAM[nb].tile=tile;
      000739 26 00            [ 8] 1913 	ld	h, #0x00
                                   1914 ;	spillPairReg hl
                                   1915 ;	spillPairReg hl
      00073B 69               [ 4] 1916 	ld	l, c
      00073C 29               [ 8] 1917 	add	hl, hl
      00073D 29               [ 8] 1918 	add	hl, hl
      00073E 11r00r00         [12] 1919 	ld	de, #_shadow_OAM
      000741 19               [ 8] 1920 	add	hl, de
      000742 23               [ 8] 1921 	inc	hl
      000743 23               [ 8] 1922 	inc	hl
      000744 36 00            [12] 1923 	ld	(hl), #0x00
                                   1924 ;ClubHeist.c:138: set_sprite_tile(Player.spriteids[1], PLAYER_SPRITE_START + 1);
      000746 21r01r00         [12] 1925 	ld	hl, #(_Player + 1)
      000749 4E               [ 8] 1926 	ld	c, (hl)
                                   1927 ;c:\users\john\gbdk-win64\gbdk\include\gb\gb.h:1804: shadow_OAM[nb].tile=tile;
      00074A 26 00            [ 8] 1928 	ld	h, #0x00
                                   1929 ;	spillPairReg hl
                                   1930 ;	spillPairReg hl
      00074C 69               [ 4] 1931 	ld	l, c
      00074D 29               [ 8] 1932 	add	hl, hl
      00074E 29               [ 8] 1933 	add	hl, hl
      00074F 11r00r00         [12] 1934 	ld	de, #_shadow_OAM
      000752 19               [ 8] 1935 	add	hl, de
      000753 23               [ 8] 1936 	inc	hl
      000754 23               [ 8] 1937 	inc	hl
      000755 36 01            [12] 1938 	ld	(hl), #0x01
                                   1939 ;ClubHeist.c:139: set_sprite_tile(Player.spriteids[2], PLAYER_SPRITE_START + 2);
      000757 21r02r00         [12] 1940 	ld	hl, #(_Player + 2)
      00075A 4E               [ 8] 1941 	ld	c, (hl)
                                   1942 ;c:\users\john\gbdk-win64\gbdk\include\gb\gb.h:1804: shadow_OAM[nb].tile=tile;
      00075B 26 00            [ 8] 1943 	ld	h, #0x00
                                   1944 ;	spillPairReg hl
                                   1945 ;	spillPairReg hl
      00075D 69               [ 4] 1946 	ld	l, c
      00075E 29               [ 8] 1947 	add	hl, hl
      00075F 29               [ 8] 1948 	add	hl, hl
      000760 11r00r00         [12] 1949 	ld	de, #_shadow_OAM
      000763 19               [ 8] 1950 	add	hl, de
      000764 23               [ 8] 1951 	inc	hl
      000765 23               [ 8] 1952 	inc	hl
      000766 36 02            [12] 1953 	ld	(hl), #0x02
                                   1954 ;ClubHeist.c:140: set_sprite_tile(Player.spriteids[3], PLAYER_SPRITE_START + 3);
      000768 21r03r00         [12] 1955 	ld	hl, #(_Player + 3)
      00076B 4E               [ 8] 1956 	ld	c, (hl)
                                   1957 ;c:\users\john\gbdk-win64\gbdk\include\gb\gb.h:1804: shadow_OAM[nb].tile=tile;
      00076C 26 00            [ 8] 1958 	ld	h, #0x00
                                   1959 ;	spillPairReg hl
                                   1960 ;	spillPairReg hl
      00076E 69               [ 4] 1961 	ld	l, c
      00076F 29               [ 8] 1962 	add	hl, hl
      000770 29               [ 8] 1963 	add	hl, hl
      000771 11r00r00         [12] 1964 	ld	de, #_shadow_OAM
      000774 19               [ 8] 1965 	add	hl, de
      000775 23               [ 8] 1966 	inc	hl
      000776 23               [ 8] 1967 	inc	hl
      000777 36 03            [12] 1968 	ld	(hl), #0x03
                                   1969 ;ClubHeist.c:142: }
      000779                       1970 00105$:
                                   1971 ;ClubHeist.c:143: Player.animFrame++;
      000779 FAr06r00         [16] 1972 	ld	a, (#(_Player + 6) + 0)
      00077C 3C               [ 4] 1973 	inc	a
      00077D 21r06r00         [12] 1974 	ld	hl, #(_Player + 6)
      000780 77               [ 8] 1975 	ld	(hl), a
                                   1976 ;ClubHeist.c:144: if(Player.animFrame == 4)
                                   1977 ;ClubHeist.c:145: Player.animFrame = 0;
      000781 D6 04            [ 8] 1978 	sub	a,#0x04
      000783 C0               [20] 1979 	ret	NZ
      000784 77               [ 8] 1980 	ld	(hl),a
                                   1981 ;ClubHeist.c:146: }
      000785 C9               [16] 1982 	ret
                                   1983 ;ClubHeist.c:148: void level_one_init(void){
                                   1984 ;	---------------------------------
                                   1985 ; Function level_one_init
                                   1986 ; ---------------------------------
      000786                       1987 _level_one_init::
                                   1988 ;ClubHeist.c:150: HIDE_SPRITES;
      000786 F0r00            [12] 1989 	ldh	a, (_LCDC_REG + 0)
      000788 E6 FD            [ 8] 1990 	and	a, #0xfd
      00078A E0r00            [12] 1991 	ldh	(_LCDC_REG + 0), a
                                   1992 ;ClubHeist.c:151: PlayerState = 1;
      00078C 21r91r16         [12] 1993 	ld	hl, #_PlayerState
      00078F 36 01            [12] 1994 	ld	(hl), #0x01
                                   1995 ;ClubHeist.c:152: In_Loading_Screen = 1;
      000791 21r90r16         [12] 1996 	ld	hl, #_In_Loading_Screen
      000794 36 01            [12] 1997 	ld	(hl), #0x01
                                   1998 ;ClubHeist.c:153: set_win_tiles(0, 0, 32,32, EmptyMap);
      000796 11rBBr0C         [12] 1999 	ld	de, #_EmptyMap
      000799 D5               [16] 2000 	push	de
      00079A 21 20 20         [12] 2001 	ld	hl, #0x2020
      00079D E5               [16] 2002 	push	hl
      00079E AF               [ 4] 2003 	xor	a, a
      00079F 0F               [ 4] 2004 	rrca
      0007A0 F5               [16] 2005 	push	af
      0007A1 CDr00r00         [24] 2006 	call	_set_win_tiles
      0007A4 E8 06            [16] 2007 	add	sp, #6
                                   2008 ;ClubHeist.c:154: set_win_tiles(5, 7, 11, 1, PressStartMap);
      0007A6 11rB0r0C         [12] 2009 	ld	de, #_PressStartMap
      0007A9 D5               [16] 2010 	push	de
      0007AA 21 0B 01         [12] 2011 	ld	hl, #0x10b
      0007AD E5               [16] 2012 	push	hl
      0007AE 21 05 07         [12] 2013 	ld	hl, #0x705
      0007B1 E5               [16] 2014 	push	hl
      0007B2 CDr00r00         [24] 2015 	call	_set_win_tiles
      0007B5 E8 06            [16] 2016 	add	sp, #6
                                   2017 ;ClubHeist.c:155: set_win_tiles(4, 4, 8, 3, LevelOneTutorialMap);
      0007B7 11rBBr10         [12] 2018 	ld	de, #_LevelOneTutorialMap
      0007BA D5               [16] 2019 	push	de
      0007BB 21 08 03         [12] 2020 	ld	hl, #0x308
      0007BE E5               [16] 2021 	push	hl
      0007BF 21 04 04         [12] 2022 	ld	hl, #0x404
      0007C2 E5               [16] 2023 	push	hl
      0007C3 CDr00r00         [24] 2024 	call	_set_win_tiles
      0007C6 E8 06            [16] 2025 	add	sp, #6
                                   2026 ;ClubHeist.c:156: init_cardboard();
      0007C8 CDr16r05         [24] 2027 	call	_init_cardboard
                                   2028 ;ClubHeist.c:157: init_bouncer();
      0007CB CDr72r05         [24] 2029 	call	_init_bouncer
                                   2030 ;ClubHeist.c:158: SHOW_WIN;
      0007CE F0r00            [12] 2031 	ldh	a, (_LCDC_REG + 0)
      0007D0 F6 20            [ 8] 2032 	or	a, #0x20
      0007D2 E0r00            [12] 2033 	ldh	(_LCDC_REG + 0), a
                                   2034 ;ClubHeist.c:159: SHOW_BKG;
      0007D4 F0r00            [12] 2035 	ldh	a, (_LCDC_REG + 0)
      0007D6 F6 01            [ 8] 2036 	or	a, #0x01
      0007D8 E0r00            [12] 2037 	ldh	(_LCDC_REG + 0), a
                                   2038 ;ClubHeist.c:160: while(In_Loading_Screen){
      0007DA                       2039 00103$:
      0007DA FAr90r16         [16] 2040 	ld	a, (#_In_Loading_Screen)
      0007DD B7               [ 4] 2041 	or	a, a
      0007DE C8               [20] 2042 	ret	Z
                                   2043 ;ClubHeist.c:161: if(joypad() & J_START){
      0007DF CDr00r00         [24] 2044 	call	_joypad
      0007E2 07               [ 4] 2045 	rlca
      0007E3 30 F5            [12] 2046 	jr	NC, 00103$
                                   2047 ;ClubHeist.c:162: HIDE_WIN;
      0007E5 F0r00            [12] 2048 	ldh	a, (_LCDC_REG + 0)
      0007E7 E6 DF            [ 8] 2049 	and	a, #0xdf
      0007E9 E0r00            [12] 2050 	ldh	(_LCDC_REG + 0), a
                                   2051 ;ClubHeist.c:163: SHOW_BKG;
      0007EB F0r00            [12] 2052 	ldh	a, (_LCDC_REG + 0)
      0007ED F6 01            [ 8] 2053 	or	a, #0x01
      0007EF E0r00            [12] 2054 	ldh	(_LCDC_REG + 0), a
                                   2055 ;ClubHeist.c:164: SHOW_SPRITES;
      0007F1 F0r00            [12] 2056 	ldh	a, (_LCDC_REG + 0)
      0007F3 F6 02            [ 8] 2057 	or	a, #0x02
      0007F5 E0r00            [12] 2058 	ldh	(_LCDC_REG + 0), a
                                   2059 ;ClubHeist.c:165: initrand(DIV_REG);
      0007F7 F0r00            [12] 2060 	ldh	a, (_DIV_REG + 0)
      0007F9 06 00            [ 8] 2061 	ld	b, #0x00
      0007FB 4F               [ 4] 2062 	ld	c, a
      0007FC C5               [16] 2063 	push	bc
      0007FD CDr00r00         [24] 2064 	call	_initrand
      000800 E1               [12] 2065 	pop	hl
                                   2066 ;ClubHeist.c:166: In_Loading_Screen = 0;
      000801 21r90r16         [12] 2067 	ld	hl, #_In_Loading_Screen
      000804 36 00            [12] 2068 	ld	(hl), #0x00
                                   2069 ;ClubHeist.c:169: }
      000806 18 D2            [12] 2070 	jr	00103$
                                   2071 ;ClubHeist.c:171: void level_two_init(void){
                                   2072 ;	---------------------------------
                                   2073 ; Function level_two_init
                                   2074 ; ---------------------------------
      000808                       2075 _level_two_init::
                                   2076 ;ClubHeist.c:172: HIDE_SPRITES;
      000808 F0r00            [12] 2077 	ldh	a, (_LCDC_REG + 0)
      00080A E6 FD            [ 8] 2078 	and	a, #0xfd
      00080C E0r00            [12] 2079 	ldh	(_LCDC_REG + 0), a
                                   2080 ;ClubHeist.c:174: PlayerState = 2;
      00080E 21r91r16         [12] 2081 	ld	hl, #_PlayerState
      000811 36 02            [12] 2082 	ld	(hl), #0x02
                                   2083 ;ClubHeist.c:175: In_Loading_Screen = 1;
      000813 21r90r16         [12] 2084 	ld	hl, #_In_Loading_Screen
      000816 36 01            [12] 2085 	ld	(hl), #0x01
                                   2086 ;ClubHeist.c:176: set_win_tiles(0, 0, 32,32, EmptyMap);
      000818 11rBBr0C         [12] 2087 	ld	de, #_EmptyMap
      00081B D5               [16] 2088 	push	de
      00081C 21 20 20         [12] 2089 	ld	hl, #0x2020
      00081F E5               [16] 2090 	push	hl
      000820 AF               [ 4] 2091 	xor	a, a
      000821 0F               [ 4] 2092 	rrca
      000822 F5               [16] 2093 	push	af
      000823 CDr00r00         [24] 2094 	call	_set_win_tiles
      000826 E8 06            [16] 2095 	add	sp, #6
                                   2096 ;ClubHeist.c:177: set_win_tiles(4, 4, 9, 2, LevelTwoStartMap);
      000828 11rDCr10         [12] 2097 	ld	de, #_LevelTwoStartMap
      00082B D5               [16] 2098 	push	de
      00082C 21 09 02         [12] 2099 	ld	hl, #0x209
      00082F E5               [16] 2100 	push	hl
      000830 21 04 04         [12] 2101 	ld	hl, #0x404
      000833 E5               [16] 2102 	push	hl
      000834 CDr00r00         [24] 2103 	call	_set_win_tiles
      000837 E8 06            [16] 2104 	add	sp, #6
                                   2105 ;ClubHeist.c:178: set_win_tiles(0, 7, 20, 5, LevelTwoTutorial);
      000839 11r2Ar16         [12] 2106 	ld	de, #_LevelTwoTutorial
      00083C D5               [16] 2107 	push	de
      00083D 21 14 05         [12] 2108 	ld	hl, #0x514
      000840 E5               [16] 2109 	push	hl
      000841 21 00 07         [12] 2110 	ld	hl, #0x700
      000844 E5               [16] 2111 	push	hl
      000845 CDr00r00         [24] 2112 	call	_set_win_tiles
      000848 E8 06            [16] 2113 	add	sp, #6
                                   2114 ;ClubHeist.c:179: set_bkg_tiles(0, 0, 20,18, LevelTwoMapA);
      00084A 11rEEr10         [12] 2115 	ld	de, #_LevelTwoMapA
      00084D D5               [16] 2116 	push	de
      00084E 21 14 12         [12] 2117 	ld	hl, #0x1214
      000851 E5               [16] 2118 	push	hl
      000852 AF               [ 4] 2119 	xor	a, a
      000853 0F               [ 4] 2120 	rrca
      000854 F5               [16] 2121 	push	af
      000855 CDr00r00         [24] 2122 	call	_set_bkg_tiles
      000858 E8 06            [16] 2123 	add	sp, #6
                                   2124 ;ClubHeist.c:180: init_player();
      00085A CDrD7r03         [24] 2125 	call	_init_player
                                   2126 ;ClubHeist.c:181: init_character(61, Bkg_Chars, 64, 32);
      00085D 21 40 20         [12] 2127 	ld	hl, #0x2040
      000860 E5               [16] 2128 	push	hl
      000861 11r22r00         [12] 2129 	ld	de, #_Bkg_Chars
      000864 3E 3D            [ 8] 2130 	ld	a, #0x3d
      000866 CDr5Ar04         [24] 2131 	call	_init_character
                                   2132 ;ClubHeist.c:182: init_character(61, Bkg_Chars + 1, 80, 32);
      000869 21 50 20         [12] 2133 	ld	hl, #0x2050
      00086C E5               [16] 2134 	push	hl
      00086D 11r2Dr00         [12] 2135 	ld	de, #(_Bkg_Chars + 11)
      000870 3E 3D            [ 8] 2136 	ld	a, #0x3d
      000872 CDr5Ar04         [24] 2137 	call	_init_character
                                   2138 ;ClubHeist.c:183: init_character(65, Bkg_Chars + 2, 96, 32);
      000875 21 60 20         [12] 2139 	ld	hl, #0x2060
      000878 E5               [16] 2140 	push	hl
      000879 11r38r00         [12] 2141 	ld	de, #(_Bkg_Chars + 22)
      00087C 3E 41            [ 8] 2142 	ld	a, #0x41
      00087E CDr5Ar04         [24] 2143 	call	_init_character
                                   2144 ;ClubHeist.c:184: init_character(0x45, &Dance_Master, 96, 88);
      000881 21 60 58         [12] 2145 	ld	hl, #0x5860
      000884 E5               [16] 2146 	push	hl
      000885 11r7Ar00         [12] 2147 	ld	de, #_Dance_Master
      000888 3E 45            [ 8] 2148 	ld	a, #0x45
      00088A CDr5Ar04         [24] 2149 	call	_init_character
                                   2150 ;ClubHeist.c:185: SHOW_WIN;
      00088D F0r00            [12] 2151 	ldh	a, (_LCDC_REG + 0)
      00088F F6 20            [ 8] 2152 	or	a, #0x20
      000891 E0r00            [12] 2153 	ldh	(_LCDC_REG + 0), a
                                   2154 ;ClubHeist.c:186: SHOW_BKG;
      000893 F0r00            [12] 2155 	ldh	a, (_LCDC_REG + 0)
      000895 F6 01            [ 8] 2156 	or	a, #0x01
      000897 E0r00            [12] 2157 	ldh	(_LCDC_REG + 0), a
                                   2158 ;ClubHeist.c:187: while(In_Loading_Screen){
      000899                       2159 00103$:
      000899 FAr90r16         [16] 2160 	ld	a, (#_In_Loading_Screen)
      00089C B7               [ 4] 2161 	or	a, a
      00089D 28 1F            [12] 2162 	jr	Z, 00105$
                                   2163 ;ClubHeist.c:188: if(joypad() & J_START){
      00089F CDr00r00         [24] 2164 	call	_joypad
      0008A2 07               [ 4] 2165 	rlca
      0008A3 30 F4            [12] 2166 	jr	NC, 00103$
                                   2167 ;ClubHeist.c:189: HIDE_WIN;
      0008A5 F0r00            [12] 2168 	ldh	a, (_LCDC_REG + 0)
      0008A7 E6 DF            [ 8] 2169 	and	a, #0xdf
      0008A9 E0r00            [12] 2170 	ldh	(_LCDC_REG + 0), a
                                   2171 ;ClubHeist.c:190: SHOW_BKG;
      0008AB F0r00            [12] 2172 	ldh	a, (_LCDC_REG + 0)
      0008AD F6 01            [ 8] 2173 	or	a, #0x01
      0008AF E0r00            [12] 2174 	ldh	(_LCDC_REG + 0), a
                                   2175 ;ClubHeist.c:191: SHOW_SPRITES;
      0008B1 F0r00            [12] 2176 	ldh	a, (_LCDC_REG + 0)
      0008B3 F6 02            [ 8] 2177 	or	a, #0x02
      0008B5 E0r00            [12] 2178 	ldh	(_LCDC_REG + 0), a
                                   2179 ;ClubHeist.c:192: In_Loading_Screen = 0;
      0008B7 21r90r16         [12] 2180 	ld	hl, #_In_Loading_Screen
      0008BA 36 00            [12] 2181 	ld	(hl), #0x00
      0008BC 18 DB            [12] 2182 	jr	00103$
      0008BE                       2183 00105$:
                                   2184 ;ClubHeist.c:195: int8_t animTimer = 0;
      0008BE 0E 00            [ 8] 2185 	ld	c, #0x00
                                   2186 ;ClubHeist.c:196: while(Player.x < 64){
      0008C0                       2187 00111$:
      0008C0 FAr07r00         [16] 2188 	ld	a, (#(_Player + 7) + 0)
      0008C3 D6 40            [ 8] 2189 	sub	a, #0x40
      0008C5 30 44            [12] 2190 	jr	NC, 00132$
                                   2191 ;ClubHeist.c:198: for(int i = 0; i < 3; i++){
      0008C7 06 00            [ 8] 2192 	ld	b, #0x00
      0008C9                       2193 00118$:
                                   2194 ;ClubHeist.c:199: if (i == 2){
      0008C9 78               [ 4] 2195 	ld	a,b
      0008CA FE 03            [ 8] 2196 	cp	a,#0x03
      0008CC 30 F2            [12] 2197 	jr	NC, 00111$
      0008CE D6 02            [ 8] 2198 	sub	a, #0x02
      0008D0 20 2E            [12] 2199 	jr	NZ, 00109$
                                   2200 ;ClubHeist.c:200: Player.x += 1;
      0008D2 FAr07r00         [16] 2201 	ld	a, (#(_Player + 7) + 0)
      0008D5 3C               [ 4] 2202 	inc	a
      0008D6 EAr07r00         [16] 2203 	ld	(#(_Player + 7)),a
                                   2204 ;ClubHeist.c:201: Move_Character(&Player);
      0008D9 C5               [16] 2205 	push	bc
      0008DA 11r00r00         [12] 2206 	ld	de, #_Player
      0008DD CDr00r00         [24] 2207 	call	_Move_Character
      0008E0 C1               [12] 2208 	pop	bc
                                   2209 ;ClubHeist.c:202: animTimer++;
      0008E1 0C               [ 4] 2210 	inc	c
                                   2211 ;ClubHeist.c:203: if(animTimer > 4)
      0008E2 59               [ 4] 2212 	ld	e, c
      0008E3 3E 04            [ 8] 2213 	ld	a,#0x04
      0008E5 57               [ 4] 2214 	ld	d,a
      0008E6 91               [ 4] 2215 	sub	a, c
      0008E7 CB 7B            [ 8] 2216 	bit	7, e
      0008E9 28 07            [12] 2217 	jr	Z, 00202$
      0008EB CB 7A            [ 8] 2218 	bit	7, d
      0008ED 20 08            [12] 2219 	jr	NZ, 00203$
      0008EF BF               [ 4] 2220 	cp	a, a
      0008F0 18 05            [12] 2221 	jr	00203$
      0008F2                       2222 00202$:
      0008F2 CB 7A            [ 8] 2223 	bit	7, d
      0008F4 28 01            [12] 2224 	jr	Z, 00203$
      0008F6 37               [ 4] 2225 	scf
      0008F7                       2226 00203$:
      0008F7 30 07            [12] 2227 	jr	NC, 00109$
                                   2228 ;ClubHeist.c:205: animatePlayer();
      0008F9 C5               [16] 2229 	push	bc
      0008FA CDr46r06         [24] 2230 	call	_animatePlayer
      0008FD C1               [12] 2231 	pop	bc
                                   2232 ;ClubHeist.c:206: animTimer = 0;
      0008FE 0E 00            [ 8] 2233 	ld	c, #0x00
      000900                       2234 00109$:
                                   2235 ;ClubHeist.c:211: updateSwitches();
      000900 C5               [16] 2236 	push	bc
      000901 CDrD0r03         [24] 2237 	call	_updateSwitches
      000904 C1               [12] 2238 	pop	bc
                                   2239 ;ClubHeist.c:212: wait_vbl_done();
      000905 CDr00r00         [24] 2240 	call	_wait_vbl_done
                                   2241 ;ClubHeist.c:198: for(int i = 0; i < 3; i++){
      000908 04               [ 4] 2242 	inc	b
      000909 18 BE            [12] 2243 	jr	00118$
                                   2244 ;ClubHeist.c:215: while(Player.animFrame)
      00090B                       2245 00132$:
      00090B                       2246 00114$:
      00090B FAr06r00         [16] 2247 	ld	a, (#(_Player + 6) + 0)
      00090E B7               [ 4] 2248 	or	a, a
      00090F C8               [20] 2249 	ret	Z
                                   2250 ;ClubHeist.c:216: animatePlayer();
      000910 CDr46r06         [24] 2251 	call	_animatePlayer
                                   2252 ;ClubHeist.c:217: }
      000913 18 F6            [12] 2253 	jr	00114$
                                   2254 ;ClubHeist.c:219: void init(void){
                                   2255 ;	---------------------------------
                                   2256 ; Function init
                                   2257 ; ---------------------------------
      000915                       2258 _init::
                                   2259 ;ClubHeist.c:220: SHOW_WIN;
      000915 F0r00            [12] 2260 	ldh	a, (_LCDC_REG + 0)
      000917 F6 20            [ 8] 2261 	or	a, #0x20
      000919 E0r00            [12] 2262 	ldh	(_LCDC_REG + 0), a
                                   2263 ;ClubHeist.c:221: DISPLAY_ON;
      00091B F0r00            [12] 2264 	ldh	a, (_LCDC_REG + 0)
      00091D F6 80            [ 8] 2265 	or	a, #0x80
      00091F E0r00            [12] 2266 	ldh	(_LCDC_REG + 0), a
                                   2267 ;ClubHeist.c:222: set_win_data(tilesetIndex, 27, Alphabet);
      000921 11r00r0B         [12] 2268 	ld	de, #_Alphabet
      000924 D5               [16] 2269 	push	de
      000925 3E 1B            [ 8] 2270 	ld	a, #0x1b
      000927 F5               [16] 2271 	push	af
      000928 33               [ 8] 2272 	inc	sp
      000929 FAr8Er16         [16] 2273 	ld	a, (#_tilesetIndex)
      00092C F5               [16] 2274 	push	af
      00092D 33               [ 8] 2275 	inc	sp
      00092E CDr00r00         [24] 2276 	call	_set_win_data
      000931 E8 04            [16] 2277 	add	sp, #4
                                   2278 ;ClubHeist.c:223: tilesetIndex += 27;
      000933 21r8Er16         [12] 2279 	ld	hl, #_tilesetIndex
      000936 7E               [ 8] 2280 	ld	a, (hl)
      000937 C6 1B            [ 8] 2281 	add	a, #0x1b
      000939 77               [ 8] 2282 	ld	(hl), a
                                   2283 ;ClubHeist.c:225: set_bkg_data(tilesetIndex, 66, Tileset);
      00093A 11r00r00         [12] 2284 	ld	de, #_Tileset
      00093D D5               [16] 2285 	push	de
      00093E 3E 42            [ 8] 2286 	ld	a, #0x42
      000940 F5               [16] 2287 	push	af
      000941 33               [ 8] 2288 	inc	sp
      000942 7E               [ 8] 2289 	ld	a, (hl)
      000943 F5               [16] 2290 	push	af
      000944 33               [ 8] 2291 	inc	sp
      000945 CDr00r00         [24] 2292 	call	_set_bkg_data
      000948 E8 04            [16] 2293 	add	sp, #4
                                   2294 ;ClubHeist.c:226: tilesetIndex += 66;
      00094A 21r8Er16         [12] 2295 	ld	hl, #_tilesetIndex
      00094D 7E               [ 8] 2296 	ld	a, (hl)
      00094E C6 42            [ 8] 2297 	add	a, #0x42
      000950 77               [ 8] 2298 	ld	(hl), a
                                   2299 ;ClubHeist.c:227: set_bkg_tiles(0,0,20,18,ClubFront);
      000951 11rF0r07         [12] 2300 	ld	de, #_ClubFront
      000954 D5               [16] 2301 	push	de
      000955 21 14 12         [12] 2302 	ld	hl, #0x1214
      000958 E5               [16] 2303 	push	hl
      000959 AF               [ 4] 2304 	xor	a, a
      00095A 0F               [ 4] 2305 	rrca
      00095B F5               [16] 2306 	push	af
      00095C CDr00r00         [24] 2307 	call	_set_bkg_tiles
      00095F E8 06            [16] 2308 	add	sp, #6
                                   2309 ;ClubHeist.c:228: set_sprite_data(0, 61, SpriteSet);
      000961 11r20r04         [12] 2310 	ld	de, #_SpriteSet
      000964 D5               [16] 2311 	push	de
      000965 21 00 3D         [12] 2312 	ld	hl, #0x3d00
      000968 E5               [16] 2313 	push	hl
      000969 CDr00r00         [24] 2314 	call	_set_sprite_data
      00096C E8 04            [16] 2315 	add	sp, #4
                                   2316 ;ClubHeist.c:229: set_sprite_data(61, 36, ClubCharacterSprites);
      00096E 11rBEr13         [12] 2317 	ld	de, #_ClubCharacterSprites
      000971 D5               [16] 2318 	push	de
      000972 3E 24            [ 8] 2319 	ld	a, #0x24
      000974 F5               [16] 2320 	push	af
      000975 33               [ 8] 2321 	inc	sp
      000976 3E 3D            [ 8] 2322 	ld	a, #0x3d
      000978 F5               [16] 2323 	push	af
      000979 33               [ 8] 2324 	inc	sp
      00097A CDr00r00         [24] 2325 	call	_set_sprite_data
      00097D E8 04            [16] 2326 	add	sp, #4
                                   2327 ;ClubHeist.c:231: level_one_init();
                                   2328 ;ClubHeist.c:234: }
      00097F C3r86r07         [16] 2329 	jp	_level_one_init
                                   2330 ;ClubHeist.c:235: void checkInput(void) {
                                   2331 ;	---------------------------------
                                   2332 ; Function checkInput
                                   2333 ; ---------------------------------
      000982                       2334 _checkInput::
                                   2335 ;ClubHeist.c:244: if(PlayerState == 1){
      000982 FAr91r16         [16] 2336 	ld	a, (#_PlayerState)
      000985 3D               [ 4] 2337 	dec	a
      000986 20 38            [12] 2338 	jr	NZ, 00111$
                                   2339 ;ClubHeist.c:246: if (joypad() & J_RIGHT) {
      000988 CDr00r00         [24] 2340 	call	_joypad
      00098B 0F               [ 4] 2341 	rrca
      00098C 30 0F            [12] 2342 	jr	NC, 00104$
                                   2343 ;ClubHeist.c:247: if(!MoveCooldown)
      00098E 21r92r16         [12] 2344 	ld	hl, #_MoveCooldown
      000991 7E               [ 8] 2345 	ld	a, (hl)
      000992 B7               [ 4] 2346 	or	a, a
      000993 20 08            [12] 2347 	jr	NZ, 00104$
                                   2348 ;ClubHeist.c:249: Box.x+= 1;
      000995 01r13r00         [12] 2349 	ld	bc, #_Box+8
      000998 0A               [ 8] 2350 	ld	a, (bc)
      000999 3C               [ 4] 2351 	inc	a
      00099A 02               [ 8] 2352 	ld	(bc), a
                                   2353 ;ClubHeist.c:250: MoveCooldown = 4;
      00099B 36 04            [12] 2354 	ld	(hl), #0x04
      00099D                       2355 00104$:
                                   2356 ;ClubHeist.c:255: if (joypad() & J_LEFT) {
      00099D CDr00r00         [24] 2357 	call	_joypad
      0009A0 CB 4F            [ 8] 2358 	bit	1, a
      0009A2 28 16            [12] 2359 	jr	Z, 00109$
                                   2360 ;ClubHeist.c:256: if(Box.x > 8 && !MoveCooldown){
      0009A4 01r13r00         [12] 2361 	ld	bc, #_Box+8
      0009A7 0A               [ 8] 2362 	ld	a, (bc)
      0009A8 5F               [ 4] 2363 	ld	e, a
      0009A9 3E 08            [ 8] 2364 	ld	a, #0x08
      0009AB 93               [ 4] 2365 	sub	a, e
      0009AC 30 0C            [12] 2366 	jr	NC, 00109$
      0009AE 21r92r16         [12] 2367 	ld	hl, #_MoveCooldown
      0009B1 7E               [ 8] 2368 	ld	a, (hl)
      0009B2 B7               [ 4] 2369 	or	a, a
      0009B3 20 05            [12] 2370 	jr	NZ, 00109$
                                   2371 ;ClubHeist.c:257: Box.x--;
      0009B5 7B               [ 4] 2372 	ld	a, e
      0009B6 3D               [ 4] 2373 	dec	a
      0009B7 02               [ 8] 2374 	ld	(bc), a
                                   2375 ;ClubHeist.c:258: MoveCooldown = 4;
      0009B8 36 04            [12] 2376 	ld	(hl), #0x04
      0009BA                       2377 00109$:
                                   2378 ;ClubHeist.c:263: Move_Box(&Box);
      0009BA 11r0Br00         [12] 2379 	ld	de, #_Box
      0009BD CDrD1r00         [24] 2380 	call	_Move_Box
      0009C0                       2381 00111$:
                                   2382 ;ClubHeist.c:289: if(joypad() & J_START){
      0009C0 CDr00r00         [24] 2383 	call	_joypad
      0009C3 07               [ 4] 2384 	rlca
      0009C4 D0               [20] 2385 	ret	NC
                                   2386 ;ClubHeist.c:290: HIDE_WIN;
      0009C5 F0r00            [12] 2387 	ldh	a, (_LCDC_REG + 0)
      0009C7 E6 DF            [ 8] 2388 	and	a, #0xdf
      0009C9 E0r00            [12] 2389 	ldh	(_LCDC_REG + 0), a
                                   2390 ;ClubHeist.c:297: }
      0009CB C9               [16] 2391 	ret
                                   2392 ;ClubHeist.c:299: void gameover(void){
                                   2393 ;	---------------------------------
                                   2394 ; Function gameover
                                   2395 ; ---------------------------------
      0009CC                       2396 _gameover::
                                   2397 ;ClubHeist.c:301: HIDE_SPRITES;
      0009CC F0r00            [12] 2398 	ldh	a, (_LCDC_REG + 0)
      0009CE E6 FD            [ 8] 2399 	and	a, #0xfd
      0009D0 E0r00            [12] 2400 	ldh	(_LCDC_REG + 0), a
                                   2401 ;ClubHeist.c:302: set_win_tiles(0, 0, 32,32, EmptyMap);
      0009D2 11rBBr0C         [12] 2402 	ld	de, #_EmptyMap
      0009D5 D5               [16] 2403 	push	de
      0009D6 21 20 20         [12] 2404 	ld	hl, #0x2020
      0009D9 E5               [16] 2405 	push	hl
      0009DA AF               [ 4] 2406 	xor	a, a
      0009DB 0F               [ 4] 2407 	rrca
      0009DC F5               [16] 2408 	push	af
      0009DD CDr00r00         [24] 2409 	call	_set_win_tiles
      0009E0 E8 06            [16] 2410 	add	sp, #6
                                   2411 ;ClubHeist.c:303: set_win_tiles(5, 7, 9, 1, GameOverMap);  
      0009E2 11rD3r10         [12] 2412 	ld	de, #_GameOverMap
      0009E5 D5               [16] 2413 	push	de
      0009E6 21 09 01         [12] 2414 	ld	hl, #0x109
      0009E9 E5               [16] 2415 	push	hl
      0009EA 21 05 07         [12] 2416 	ld	hl, #0x705
      0009ED E5               [16] 2417 	push	hl
      0009EE CDr00r00         [24] 2418 	call	_set_win_tiles
      0009F1 E8 06            [16] 2419 	add	sp, #6
                                   2420 ;ClubHeist.c:304: SHOW_WIN;
      0009F3 F0r00            [12] 2421 	ldh	a, (_LCDC_REG + 0)
      0009F5 F6 20            [ 8] 2422 	or	a, #0x20
      0009F7 E0r00            [12] 2423 	ldh	(_LCDC_REG + 0), a
                                   2424 ;ClubHeist.c:305: while(1){
      0009F9                       2425 00102$:
                                   2426 ;ClubHeist.c:306: updateSwitches();
      0009F9 CDrD0r03         [24] 2427 	call	_updateSwitches
                                   2428 ;ClubHeist.c:308: }
      0009FC 18 FB            [12] 2429 	jr	00102$
                                   2430 ;ClubHeist.c:310: void animateDancing(struct Character* Character, int8_t spriteNum)
                                   2431 ;	---------------------------------
                                   2432 ; Function animateDancing
                                   2433 ; ---------------------------------
      0009FE                       2434 _animateDancing::
      0009FE 3B               [ 8] 2435 	dec	sp
      0009FF F8 00            [12] 2436 	ldhl	sp,	#0
      000A01 77               [ 8] 2437 	ld	(hl), a
                                   2438 ;ClubHeist.c:312: set_sprite_tile(Character->spriteids[0], spriteNum);
      000A02 1A               [ 8] 2439 	ld	a, (de)
                                   2440 ;c:\users\john\gbdk-win64\gbdk\include\gb\gb.h:1804: shadow_OAM[nb].tile=tile;
      000A03 6F               [ 4] 2441 	ld	l, a
                                   2442 ;	spillPairReg hl
                                   2443 ;	spillPairReg hl
      000A04 26 00            [ 8] 2444 	ld	h, #0x00
                                   2445 ;	spillPairReg hl
                                   2446 ;	spillPairReg hl
      000A06 29               [ 8] 2447 	add	hl, hl
      000A07 29               [ 8] 2448 	add	hl, hl
      000A08 01r00r00         [12] 2449 	ld	bc, #_shadow_OAM
      000A0B 09               [ 8] 2450 	add	hl, bc
      000A0C 23               [ 8] 2451 	inc	hl
      000A0D 23               [ 8] 2452 	inc	hl
      000A0E 4D               [ 4] 2453 	ld	c, l
      000A0F 44               [ 4] 2454 	ld	b, h
      000A10 F8 00            [12] 2455 	ldhl	sp,	#0
      000A12 7E               [ 8] 2456 	ld	a, (hl)
      000A13 02               [ 8] 2457 	ld	(bc), a
                                   2458 ;ClubHeist.c:313: set_sprite_tile(Character->spriteids[1], spriteNum + 1);
      000A14 4E               [ 8] 2459 	ld	c, (hl)
      000A15 0C               [ 4] 2460 	inc	c
      000A16 6B               [ 4] 2461 	ld	l, e
                                   2462 ;	spillPairReg hl
                                   2463 ;	spillPairReg hl
      000A17 62               [ 4] 2464 	ld	h, d
                                   2465 ;	spillPairReg hl
                                   2466 ;	spillPairReg hl
      000A18 23               [ 8] 2467 	inc	hl
                                   2468 ;c:\users\john\gbdk-win64\gbdk\include\gb\gb.h:1804: shadow_OAM[nb].tile=tile;
      000A19 6E               [ 8] 2469 	ld	l, (hl)
                                   2470 ;	spillPairReg hl
                                   2471 ;	spillPairReg hl
      000A1A 26 00            [ 8] 2472 	ld	h, #0x00
                                   2473 ;	spillPairReg hl
                                   2474 ;	spillPairReg hl
      000A1C 29               [ 8] 2475 	add	hl, hl
      000A1D 29               [ 8] 2476 	add	hl, hl
      000A1E D5               [16] 2477 	push	de
      000A1F 11r00r00         [12] 2478 	ld	de, #_shadow_OAM
      000A22 19               [ 8] 2479 	add	hl, de
      000A23 23               [ 8] 2480 	inc	hl
      000A24 23               [ 8] 2481 	inc	hl
      000A25 D1               [12] 2482 	pop	de
      000A26 71               [ 8] 2483 	ld	(hl), c
                                   2484 ;ClubHeist.c:314: set_sprite_tile(Character->spriteids[2], spriteNum + 2);
      000A27 F8 00            [12] 2485 	ldhl	sp,	#0
      000A29 4E               [ 8] 2486 	ld	c, (hl)
      000A2A 0C               [ 4] 2487 	inc	c
      000A2B 0C               [ 4] 2488 	inc	c
      000A2C 6B               [ 4] 2489 	ld	l, e
                                   2490 ;	spillPairReg hl
                                   2491 ;	spillPairReg hl
      000A2D 62               [ 4] 2492 	ld	h, d
                                   2493 ;	spillPairReg hl
                                   2494 ;	spillPairReg hl
      000A2E 23               [ 8] 2495 	inc	hl
      000A2F 23               [ 8] 2496 	inc	hl
                                   2497 ;c:\users\john\gbdk-win64\gbdk\include\gb\gb.h:1804: shadow_OAM[nb].tile=tile;
      000A30 6E               [ 8] 2498 	ld	l, (hl)
                                   2499 ;	spillPairReg hl
                                   2500 ;	spillPairReg hl
      000A31 26 00            [ 8] 2501 	ld	h, #0x00
                                   2502 ;	spillPairReg hl
                                   2503 ;	spillPairReg hl
      000A33 29               [ 8] 2504 	add	hl, hl
      000A34 29               [ 8] 2505 	add	hl, hl
      000A35 D5               [16] 2506 	push	de
      000A36 11r00r00         [12] 2507 	ld	de, #_shadow_OAM
      000A39 19               [ 8] 2508 	add	hl, de
      000A3A 23               [ 8] 2509 	inc	hl
      000A3B 23               [ 8] 2510 	inc	hl
      000A3C D1               [12] 2511 	pop	de
      000A3D 71               [ 8] 2512 	ld	(hl), c
                                   2513 ;ClubHeist.c:315: set_sprite_tile(Character->spriteids[3], spriteNum + 3);
      000A3E F8 00            [12] 2514 	ldhl	sp,	#0
      000A40 4E               [ 8] 2515 	ld	c, (hl)
      000A41 0C               [ 4] 2516 	inc	c
      000A42 0C               [ 4] 2517 	inc	c
      000A43 0C               [ 4] 2518 	inc	c
      000A44 13               [ 8] 2519 	inc	de
      000A45 13               [ 8] 2520 	inc	de
      000A46 13               [ 8] 2521 	inc	de
      000A47 1A               [ 8] 2522 	ld	a, (de)
                                   2523 ;c:\users\john\gbdk-win64\gbdk\include\gb\gb.h:1804: shadow_OAM[nb].tile=tile;
      000A48 6F               [ 4] 2524 	ld	l, a
      000A49 11r00r00         [12] 2525 	ld	de, #_shadow_OAM+0
                                   2526 ;	spillPairReg hl
                                   2527 ;	spillPairReg hl
      000A4C 26 00            [ 8] 2528 	ld	h, #0x00
                                   2529 ;	spillPairReg hl
                                   2530 ;	spillPairReg hl
      000A4E 29               [ 8] 2531 	add	hl, hl
      000A4F 29               [ 8] 2532 	add	hl, hl
      000A50 19               [ 8] 2533 	add	hl, de
      000A51 23               [ 8] 2534 	inc	hl
      000A52 23               [ 8] 2535 	inc	hl
      000A53 71               [ 8] 2536 	ld	(hl), c
                                   2537 ;ClubHeist.c:315: set_sprite_tile(Character->spriteids[3], spriteNum + 3);
                                   2538 ;ClubHeist.c:316: }
      000A54 33               [ 8] 2539 	inc	sp
      000A55 C9               [16] 2540 	ret
                                   2541 ;ClubHeist.c:318: void EndScreen(void)
                                   2542 ;	---------------------------------
                                   2543 ; Function EndScreen
                                   2544 ; ---------------------------------
      000A56                       2545 _EndScreen::
                                   2546 ;ClubHeist.c:320: HIDE_SPRITES;
      000A56 F0r00            [12] 2547 	ldh	a, (_LCDC_REG + 0)
      000A58 E6 FD            [ 8] 2548 	and	a, #0xfd
      000A5A E0r00            [12] 2549 	ldh	(_LCDC_REG + 0), a
                                   2550 ;ClubHeist.c:321: set_win_tiles(0, 0, 32,32, EmptyMap);
      000A5C 11rBBr0C         [12] 2551 	ld	de, #_EmptyMap
      000A5F D5               [16] 2552 	push	de
      000A60 21 20 20         [12] 2553 	ld	hl, #0x2020
      000A63 E5               [16] 2554 	push	hl
      000A64 AF               [ 4] 2555 	xor	a, a
      000A65 0F               [ 4] 2556 	rrca
      000A66 F5               [16] 2557 	push	af
      000A67 CDr00r00         [24] 2558 	call	_set_win_tiles
      000A6A E8 06            [16] 2559 	add	sp, #6
                                   2560 ;ClubHeist.c:322: set_win_tiles(5, 6, 11,4, EndScreenMap);  
      000A6C 11rFEr15         [12] 2561 	ld	de, #_EndScreenMap
      000A6F D5               [16] 2562 	push	de
      000A70 21 0B 04         [12] 2563 	ld	hl, #0x40b
      000A73 E5               [16] 2564 	push	hl
      000A74 21 05 06         [12] 2565 	ld	hl, #0x605
      000A77 E5               [16] 2566 	push	hl
      000A78 CDr00r00         [24] 2567 	call	_set_win_tiles
      000A7B E8 06            [16] 2568 	add	sp, #6
                                   2569 ;ClubHeist.c:323: SHOW_WIN;
      000A7D F0r00            [12] 2570 	ldh	a, (_LCDC_REG + 0)
      000A7F F6 20            [ 8] 2571 	or	a, #0x20
      000A81 E0r00            [12] 2572 	ldh	(_LCDC_REG + 0), a
                                   2573 ;ClubHeist.c:324: while(1){
      000A83                       2574 00102$:
                                   2575 ;ClubHeist.c:325: updateSwitches();
      000A83 CDrD0r03         [24] 2576 	call	_updateSwitches
                                   2577 ;ClubHeist.c:327: }
      000A86 18 FB            [12] 2578 	jr	00102$
                                   2579 ;ClubHeist.c:329: void danceOff(void){
                                   2580 ;	---------------------------------
                                   2581 ; Function danceOff
                                   2582 ; ---------------------------------
      000A88                       2583 _danceOff::
      000A88 E8 F1            [16] 2584 	add	sp, #-15
                                   2585 ;ClubHeist.c:330: animateDancing(&Player, PLAYERBASE);
      000A8A 3E 1D            [ 8] 2586 	ld	a, #0x1d
      000A8C 11r00r00         [12] 2587 	ld	de, #_Player
      000A8F CDrFEr09         [24] 2588 	call	_animateDancing
                                   2589 ;ClubHeist.c:334: int8_t incorrect = 0;
      000A92 F8 08            [12] 2590 	ldhl	sp,	#8
      000A94 36 00            [12] 2591 	ld	(hl), #0x00
                                   2592 ;ClubHeist.c:335: while(Round < 5){
      000A96 F8 0E            [12] 2593 	ldhl	sp,	#14
      000A98 36 01            [12] 2594 	ld	(hl), #0x01
      000A9A                       2595 00141$:
      000A9A F8 0E            [12] 2596 	ldhl	sp,	#14
      000A9C 7E               [ 8] 2597 	ld	a, (hl)
      000A9D EE 80            [ 8] 2598 	xor	a, #0x80
      000A9F D6 85            [ 8] 2599 	sub	a, #0x85
      000AA1 D2r05r0D         [16] 2600 	jp	NC, 00143$
                                   2601 ;ClubHeist.c:337: for(int j = 0; j < Round + 3; j++){
      000AA4 2B               [ 8] 2602 	dec	hl
      000AA5 2B               [ 8] 2603 	dec	hl
      000AA6 AF               [ 4] 2604 	xor	a, a
      000AA7 22               [ 8] 2605 	ld	(hl+), a
      000AA8 77               [ 8] 2606 	ld	(hl), a
      000AA9                       2607 00148$:
      000AA9 F8 0E            [12] 2608 	ldhl	sp,	#14
      000AAB 7E               [ 8] 2609 	ld	a, (hl)
      000AAC 4F               [ 4] 2610 	ld	c, a
      000AAD 07               [ 4] 2611 	rlca
      000AAE 9F               [ 4] 2612 	sbc	a, a
      000AAF 47               [ 4] 2613 	ld	b, a
      000AB0 03               [ 8] 2614 	inc	bc
      000AB1 03               [ 8] 2615 	inc	bc
      000AB2 03               [ 8] 2616 	inc	bc
      000AB3 F8 09            [12] 2617 	ldhl	sp,	#9
      000AB5 79               [ 4] 2618 	ld	a, c
      000AB6 22               [ 8] 2619 	ld	(hl+), a
      000AB7 70               [ 8] 2620 	ld	(hl), b
      000AB8 F8 0C            [12] 2621 	ldhl	sp,	#12
      000ABA 5D               [ 4] 2622 	ld	e, l
      000ABB 54               [ 4] 2623 	ld	d, h
      000ABC F8 09            [12] 2624 	ldhl	sp,	#9
      000ABE 1A               [ 8] 2625 	ld	a, (de)
      000ABF 13               [ 8] 2626 	inc	de
      000AC0 96               [ 8] 2627 	sub	a, (hl)
      000AC1 23               [ 8] 2628 	inc	hl
      000AC2 1A               [ 8] 2629 	ld	a, (de)
      000AC3 9E               [ 8] 2630 	sbc	a, (hl)
      000AC4 1A               [ 8] 2631 	ld	a, (de)
      000AC5 57               [ 4] 2632 	ld	d, a
      000AC6 CB 7E            [12] 2633 	bit	7, (hl)
      000AC8 28 07            [12] 2634 	jr	Z, 00356$
      000ACA CB 7A            [ 8] 2635 	bit	7, d
      000ACC 20 08            [12] 2636 	jr	NZ, 00357$
      000ACE BF               [ 4] 2637 	cp	a, a
      000ACF 18 05            [12] 2638 	jr	00357$
      000AD1                       2639 00356$:
      000AD1 CB 7A            [ 8] 2640 	bit	7, d
      000AD3 28 01            [12] 2641 	jr	Z, 00357$
      000AD5 37               [ 4] 2642 	scf
      000AD6                       2643 00357$:
      000AD6 D2r76r0B         [16] 2644 	jp	NC, 00108$
                                   2645 ;ClubHeist.c:339: int8_t r = rand() %5;
      000AD9 CDr00r00         [24] 2646 	call	_rand
      000ADC 16 00            [ 8] 2647 	ld	d, #0x00
      000ADE 01 05 00         [12] 2648 	ld	bc, #0x0005
      000AE1 CDr00r00         [24] 2649 	call	__modsint
                                   2650 ;ClubHeist.c:340: moves[j] = r;
      000AE4 E5               [16] 2651 	push	hl
      000AE5 21 02 00         [12] 2652 	ld	hl, #2
      000AE8 39               [ 8] 2653 	add	hl, sp
      000AE9 5D               [ 4] 2654 	ld	e, l
      000AEA 54               [ 4] 2655 	ld	d, h
      000AEB E1               [12] 2656 	pop	hl
      000AEC F8 0C            [12] 2657 	ldhl	sp,	#12
      000AEE 2A               [ 8] 2658 	ld	a,	(hl+)
      000AEF 66               [ 8] 2659 	ld	h, (hl)
      000AF0 6F               [ 4] 2660 	ld	l, a
      000AF1 19               [ 8] 2661 	add	hl, de
      000AF2 5D               [ 4] 2662 	ld	e, l
      000AF3 54               [ 4] 2663 	ld	d, h
      000AF4 79               [ 4] 2664 	ld	a, c
      000AF5 12               [ 8] 2665 	ld	(de), a
                                   2666 ;ClubHeist.c:341: switch(r){
      000AF6 79               [ 4] 2667 	ld	a, c
      000AF7 B7               [ 4] 2668 	or	a, a
      000AF8 28 13            [12] 2669 	jr	Z, 00101$
      000AFA 79               [ 4] 2670 	ld	a, c
      000AFB 3D               [ 4] 2671 	dec	a
      000AFC 28 19            [12] 2672 	jr	Z, 00102$
      000AFE 79               [ 4] 2673 	ld	a,c
      000AFF FE 02            [ 8] 2674 	cp	a,#0x02
      000B01 28 1E            [12] 2675 	jr	Z, 00103$
      000B03 FE 03            [ 8] 2676 	cp	a,#0x03
      000B05 28 24            [12] 2677 	jr	Z, 00104$
      000B07 D6 04            [ 8] 2678 	sub	a, #0x04
      000B09 28 2A            [12] 2679 	jr	Z, 00105$
      000B0B 18 30            [12] 2680 	jr	00164$
                                   2681 ;ClubHeist.c:342: case 0:
      000B0D                       2682 00101$:
                                   2683 ;ClubHeist.c:343: animateDancing(&Dance_Master, MASTERRIGHT);
      000B0D 3E 49            [ 8] 2684 	ld	a, #0x49
      000B0F 11r7Ar00         [12] 2685 	ld	de, #_Dance_Master
      000B12 CDrFEr09         [24] 2686 	call	_animateDancing
                                   2687 ;ClubHeist.c:344: break;
      000B15 18 26            [12] 2688 	jr	00164$
                                   2689 ;ClubHeist.c:345: case 1:
      000B17                       2690 00102$:
                                   2691 ;ClubHeist.c:346: animateDancing(&Dance_Master, MASTERLEFT);
      000B17 3E 4D            [ 8] 2692 	ld	a, #0x4d
      000B19 11r7Ar00         [12] 2693 	ld	de, #_Dance_Master
      000B1C CDrFEr09         [24] 2694 	call	_animateDancing
                                   2695 ;ClubHeist.c:347: break;
      000B1F 18 1C            [12] 2696 	jr	00164$
                                   2697 ;ClubHeist.c:348: case 2:
      000B21                       2698 00103$:
                                   2699 ;ClubHeist.c:349: animateDancing(&Dance_Master, MASTERDOWN);
      000B21 3E 51            [ 8] 2700 	ld	a, #0x51
      000B23 11r7Ar00         [12] 2701 	ld	de, #_Dance_Master
      000B26 CDrFEr09         [24] 2702 	call	_animateDancing
                                   2703 ;ClubHeist.c:350: break;
      000B29 18 12            [12] 2704 	jr	00164$
                                   2705 ;ClubHeist.c:351: case 3:
      000B2B                       2706 00104$:
                                   2707 ;ClubHeist.c:352: animateDancing(&Dance_Master, MASTERUP);
      000B2B 3E 55            [ 8] 2708 	ld	a, #0x55
      000B2D 11r7Ar00         [12] 2709 	ld	de, #_Dance_Master
      000B30 CDrFEr09         [24] 2710 	call	_animateDancing
                                   2711 ;ClubHeist.c:353: break;
      000B33 18 08            [12] 2712 	jr	00164$
                                   2713 ;ClubHeist.c:354: case 4:
      000B35                       2714 00105$:
                                   2715 ;ClubHeist.c:355: animateDancing(&Dance_Master, MASTERA);
      000B35 3E 5D            [ 8] 2716 	ld	a, #0x5d
      000B37 11r7Ar00         [12] 2717 	ld	de, #_Dance_Master
      000B3A CDrFEr09         [24] 2718 	call	_animateDancing
                                   2719 ;ClubHeist.c:358: for(int i = 0; i < 60; i++){
      000B3D                       2720 00164$:
      000B3D AF               [ 4] 2721 	xor	a, a
      000B3E F8 0A            [12] 2722 	ldhl	sp,	#10
      000B40 22               [ 8] 2723 	ld	(hl+), a
      000B41 77               [ 8] 2724 	ld	(hl), a
      000B42                       2725 00145$:
      000B42 F8 0A            [12] 2726 	ldhl	sp,	#10
      000B44 2A               [ 8] 2727 	ld	a, (hl+)
      000B45 D6 3C            [ 8] 2728 	sub	a, #0x3c
      000B47 7E               [ 8] 2729 	ld	a, (hl)
      000B48 DE 00            [ 8] 2730 	sbc	a, #0x00
      000B4A 56               [ 8] 2731 	ld	d, (hl)
      000B4B 3E 00            [ 8] 2732 	ld	a, #0x00
      000B4D CB 7F            [ 8] 2733 	bit	7,a
      000B4F 28 07            [12] 2734 	jr	Z, 00363$
      000B51 CB 7A            [ 8] 2735 	bit	7, d
      000B53 20 08            [12] 2736 	jr	NZ, 00364$
      000B55 BF               [ 4] 2737 	cp	a, a
      000B56 18 05            [12] 2738 	jr	00364$
      000B58                       2739 00363$:
      000B58 CB 7A            [ 8] 2740 	bit	7, d
      000B5A 28 01            [12] 2741 	jr	Z, 00364$
      000B5C 37               [ 4] 2742 	scf
      000B5D                       2743 00364$:
      000B5D 30 0C            [12] 2744 	jr	NC, 00149$
                                   2745 ;ClubHeist.c:359: wait_vbl_done();
      000B5F CDr00r00         [24] 2746 	call	_wait_vbl_done
                                   2747 ;ClubHeist.c:358: for(int i = 0; i < 60; i++){
      000B62 F8 0A            [12] 2748 	ldhl	sp,	#10
      000B64 34               [12] 2749 	inc	(hl)
      000B65 20 DB            [12] 2750 	jr	NZ, 00145$
      000B67 23               [ 8] 2751 	inc	hl
      000B68 34               [12] 2752 	inc	(hl)
      000B69 18 D7            [12] 2753 	jr	00145$
      000B6B                       2754 00149$:
                                   2755 ;ClubHeist.c:337: for(int j = 0; j < Round + 3; j++){
      000B6B F8 0C            [12] 2756 	ldhl	sp,	#12
      000B6D 34               [12] 2757 	inc	(hl)
      000B6E C2rA9r0A         [16] 2758 	jp	NZ,00148$
      000B71 23               [ 8] 2759 	inc	hl
      000B72 34               [12] 2760 	inc	(hl)
      000B73 C3rA9r0A         [16] 2761 	jp	00148$
      000B76                       2762 00108$:
                                   2763 ;ClubHeist.c:363: int8_t movesMade = 0;
                                   2764 ;ClubHeist.c:364: int8_t playerDancing = 0;
      000B76 01 00 00         [12] 2765 	ld	bc, #0x0
                                   2766 ;ClubHeist.c:365: while(movesMade < Round + 3){
      000B79                       2767 00138$:
      000B79 79               [ 4] 2768 	ld	a, c
      000B7A F8 0C            [12] 2769 	ldhl	sp,	#12
      000B7C 22               [ 8] 2770 	ld	(hl+), a
      000B7D 07               [ 4] 2771 	rlca
      000B7E 9F               [ 4] 2772 	sbc	a, a
      000B7F 77               [ 8] 2773 	ld	(hl), a
      000B80 F8 0C            [12] 2774 	ldhl	sp,	#12
      000B82 5D               [ 4] 2775 	ld	e, l
      000B83 54               [ 4] 2776 	ld	d, h
      000B84 F8 09            [12] 2777 	ldhl	sp,	#9
      000B86 1A               [ 8] 2778 	ld	a, (de)
      000B87 13               [ 8] 2779 	inc	de
      000B88 96               [ 8] 2780 	sub	a, (hl)
      000B89 23               [ 8] 2781 	inc	hl
      000B8A 1A               [ 8] 2782 	ld	a, (de)
      000B8B 9E               [ 8] 2783 	sbc	a, (hl)
      000B8C 1A               [ 8] 2784 	ld	a, (de)
      000B8D 57               [ 4] 2785 	ld	d, a
      000B8E CB 7E            [12] 2786 	bit	7, (hl)
      000B90 28 07            [12] 2787 	jr	Z, 00367$
      000B92 CB 7A            [ 8] 2788 	bit	7, d
      000B94 20 08            [12] 2789 	jr	NZ, 00368$
      000B96 BF               [ 4] 2790 	cp	a, a
      000B97 18 05            [12] 2791 	jr	00368$
      000B99                       2792 00367$:
      000B99 CB 7A            [ 8] 2793 	bit	7, d
      000B9B 28 01            [12] 2794 	jr	Z, 00368$
      000B9D 37               [ 4] 2795 	scf
      000B9E                       2796 00368$:
      000B9E D2rFFr0C         [16] 2797 	jp	NC, 00140$
                                   2798 ;ClubHeist.c:367: int8_t input = joypad();
      000BA1 CDr00r00         [24] 2799 	call	_joypad
      000BA4 F8 0B            [12] 2800 	ldhl	sp,	#11
                                   2801 ;ClubHeist.c:373: if(moves[movesMade++] != move){
      000BA6 22               [ 8] 2802 	ld	(hl+), a
      000BA7 79               [ 4] 2803 	ld	a, c
      000BA8 3C               [ 4] 2804 	inc	a
      000BA9 77               [ 8] 2805 	ld	(hl), a
                                   2806 ;ClubHeist.c:374: incorrect++;
      000BAA F8 08            [12] 2807 	ldhl	sp,	#8
      000BAC 7E               [ 8] 2808 	ld	a, (hl)
      000BAD 3C               [ 4] 2809 	inc	a
      000BAE F8 0D            [12] 2810 	ldhl	sp,	#13
      000BB0 77               [ 8] 2811 	ld	(hl), a
                                   2812 ;ClubHeist.c:369: if (input & J_RIGHT) 
      000BB1 E5               [16] 2813 	push	hl
      000BB2 2B               [ 8] 2814 	dec	hl
      000BB3 2B               [ 8] 2815 	dec	hl
      000BB4 CB 46            [12] 2816 	bit	0, (hl)
      000BB6 E1               [12] 2817 	pop	hl
      000BB7 28 26            [12] 2818 	jr	Z, 00131$
                                   2819 ;ClubHeist.c:372: animateDancing(&Player, PLAYERRIGHT);
      000BB9 C5               [16] 2820 	push	bc
      000BBA 3E 29            [ 8] 2821 	ld	a, #0x29
      000BBC 11r00r00         [12] 2822 	ld	de, #_Player
      000BBF CDrFEr09         [24] 2823 	call	_animateDancing
      000BC2 C1               [12] 2824 	pop	bc
                                   2825 ;ClubHeist.c:373: if(moves[movesMade++] != move){
      000BC3 79               [ 4] 2826 	ld	a, c
      000BC4 F8 0C            [12] 2827 	ldhl	sp,	#12
      000BC6 4E               [ 8] 2828 	ld	c, (hl)
      000BC7 5F               [ 4] 2829 	ld	e, a
      000BC8 07               [ 4] 2830 	rlca
      000BC9 9F               [ 4] 2831 	sbc	a, a
      000BCA 57               [ 4] 2832 	ld	d, a
      000BCB 21 00 00         [12] 2833 	ld	hl, #0
      000BCE 39               [ 8] 2834 	add	hl, sp
      000BCF 19               [ 8] 2835 	add	hl, de
      000BD0 7E               [ 8] 2836 	ld	a, (hl)
      000BD1 B7               [ 4] 2837 	or	a, a
      000BD2 28 06            [12] 2838 	jr	Z, 00110$
                                   2839 ;ClubHeist.c:374: incorrect++;
      000BD4 F8 0D            [12] 2840 	ldhl	sp,	#13
      000BD6 7E               [ 8] 2841 	ld	a, (hl)
      000BD7 F8 08            [12] 2842 	ldhl	sp,	#8
      000BD9 77               [ 8] 2843 	ld	(hl), a
      000BDA                       2844 00110$:
                                   2845 ;ClubHeist.c:376: playerDancing = 1;
      000BDA 06 01            [ 8] 2846 	ld	b, #0x01
      000BDC C3r9Br0C         [16] 2847 	jp	00179$
      000BDF                       2848 00131$:
                                   2849 ;ClubHeist.c:378: else if (input & J_LEFT) 
      000BDF E5               [16] 2850 	push	hl
      000BE0 F8 0D            [12] 2851 	ldhl	sp,	#13
      000BE2 CB 4E            [12] 2852 	bit	1, (hl)
      000BE4 E1               [12] 2853 	pop	hl
      000BE5 28 26            [12] 2854 	jr	Z, 00128$
                                   2855 ;ClubHeist.c:381: animateDancing(&Player, PLAYERLEFT);
      000BE7 C5               [16] 2856 	push	bc
      000BE8 3E 2D            [ 8] 2857 	ld	a, #0x2d
      000BEA 11r00r00         [12] 2858 	ld	de, #_Player
      000BED CDrFEr09         [24] 2859 	call	_animateDancing
      000BF0 C1               [12] 2860 	pop	bc
                                   2861 ;ClubHeist.c:383: if(moves[movesMade++] != move){
      000BF1 79               [ 4] 2862 	ld	a, c
      000BF2 F8 0C            [12] 2863 	ldhl	sp,	#12
      000BF4 4E               [ 8] 2864 	ld	c, (hl)
      000BF5 5F               [ 4] 2865 	ld	e, a
      000BF6 07               [ 4] 2866 	rlca
      000BF7 9F               [ 4] 2867 	sbc	a, a
      000BF8 57               [ 4] 2868 	ld	d, a
      000BF9 21 00 00         [12] 2869 	ld	hl, #0
      000BFC 39               [ 8] 2870 	add	hl, sp
      000BFD 19               [ 8] 2871 	add	hl, de
      000BFE 7E               [ 8] 2872 	ld	a, (hl)
      000BFF 3D               [ 4] 2873 	dec	a
      000C00 28 06            [12] 2874 	jr	Z, 00112$
                                   2875 ;ClubHeist.c:384: incorrect++;
      000C02 F8 0D            [12] 2876 	ldhl	sp,	#13
      000C04 7E               [ 8] 2877 	ld	a, (hl)
      000C05 F8 08            [12] 2878 	ldhl	sp,	#8
      000C07 77               [ 8] 2879 	ld	(hl), a
      000C08                       2880 00112$:
                                   2881 ;ClubHeist.c:386: playerDancing = 1;
      000C08 06 01            [ 8] 2882 	ld	b, #0x01
      000C0A C3r9Br0C         [16] 2883 	jp	00179$
      000C0D                       2884 00128$:
                                   2885 ;ClubHeist.c:388: else if (input & J_DOWN) 
      000C0D E5               [16] 2886 	push	hl
      000C0E F8 0D            [12] 2887 	ldhl	sp,	#13
      000C10 CB 5E            [12] 2888 	bit	3, (hl)
      000C12 E1               [12] 2889 	pop	hl
      000C13 28 28            [12] 2890 	jr	Z, 00125$
                                   2891 ;ClubHeist.c:391: animateDancing(&Player, PLAYERDOWN);
      000C15 C5               [16] 2892 	push	bc
      000C16 3E 31            [ 8] 2893 	ld	a, #0x31
      000C18 11r00r00         [12] 2894 	ld	de, #_Player
      000C1B CDrFEr09         [24] 2895 	call	_animateDancing
      000C1E C1               [12] 2896 	pop	bc
                                   2897 ;ClubHeist.c:392: if(moves[movesMade++] != move){
      000C1F 79               [ 4] 2898 	ld	a, c
      000C20 F8 0C            [12] 2899 	ldhl	sp,	#12
      000C22 4E               [ 8] 2900 	ld	c, (hl)
      000C23 6F               [ 4] 2901 	ld	l, a
                                   2902 ;	spillPairReg hl
                                   2903 ;	spillPairReg hl
      000C24 07               [ 4] 2904 	rlca
      000C25 9F               [ 4] 2905 	sbc	a, a
      000C26 47               [ 4] 2906 	ld	b, a
      000C27 5D               [ 4] 2907 	ld	e, l
      000C28 50               [ 4] 2908 	ld	d, b
      000C29 21 00 00         [12] 2909 	ld	hl, #0
      000C2C 39               [ 8] 2910 	add	hl, sp
      000C2D 19               [ 8] 2911 	add	hl, de
      000C2E 7E               [ 8] 2912 	ld	a, (hl)
      000C2F D6 02            [ 8] 2913 	sub	a, #0x02
      000C31 28 06            [12] 2914 	jr	Z, 00114$
                                   2915 ;ClubHeist.c:393: incorrect++;
      000C33 F8 0D            [12] 2916 	ldhl	sp,	#13
      000C35 7E               [ 8] 2917 	ld	a, (hl)
      000C36 F8 08            [12] 2918 	ldhl	sp,	#8
      000C38 77               [ 8] 2919 	ld	(hl), a
      000C39                       2920 00114$:
                                   2921 ;ClubHeist.c:395: playerDancing = 1;
      000C39 06 01            [ 8] 2922 	ld	b, #0x01
      000C3B 18 5E            [12] 2923 	jr	00179$
      000C3D                       2924 00125$:
                                   2925 ;ClubHeist.c:397: else if (input & J_UP) 
      000C3D E5               [16] 2926 	push	hl
      000C3E F8 0D            [12] 2927 	ldhl	sp,	#13
      000C40 CB 56            [12] 2928 	bit	2, (hl)
      000C42 E1               [12] 2929 	pop	hl
      000C43 28 28            [12] 2930 	jr	Z, 00122$
                                   2931 ;ClubHeist.c:400: animateDancing(&Player, PLAYERUP);
      000C45 C5               [16] 2932 	push	bc
      000C46 3E 35            [ 8] 2933 	ld	a, #0x35
      000C48 11r00r00         [12] 2934 	ld	de, #_Player
      000C4B CDrFEr09         [24] 2935 	call	_animateDancing
      000C4E C1               [12] 2936 	pop	bc
                                   2937 ;ClubHeist.c:401: if(moves[movesMade++] != move){
      000C4F 79               [ 4] 2938 	ld	a, c
      000C50 F8 0C            [12] 2939 	ldhl	sp,	#12
      000C52 4E               [ 8] 2940 	ld	c, (hl)
      000C53 6F               [ 4] 2941 	ld	l, a
                                   2942 ;	spillPairReg hl
                                   2943 ;	spillPairReg hl
      000C54 07               [ 4] 2944 	rlca
      000C55 9F               [ 4] 2945 	sbc	a, a
      000C56 47               [ 4] 2946 	ld	b, a
      000C57 5D               [ 4] 2947 	ld	e, l
      000C58 50               [ 4] 2948 	ld	d, b
      000C59 21 00 00         [12] 2949 	ld	hl, #0
      000C5C 39               [ 8] 2950 	add	hl, sp
      000C5D 19               [ 8] 2951 	add	hl, de
      000C5E 7E               [ 8] 2952 	ld	a, (hl)
      000C5F D6 03            [ 8] 2953 	sub	a, #0x03
      000C61 28 06            [12] 2954 	jr	Z, 00116$
                                   2955 ;ClubHeist.c:402: incorrect++;
      000C63 F8 0D            [12] 2956 	ldhl	sp,	#13
      000C65 7E               [ 8] 2957 	ld	a, (hl)
      000C66 F8 08            [12] 2958 	ldhl	sp,	#8
      000C68 77               [ 8] 2959 	ld	(hl), a
      000C69                       2960 00116$:
                                   2961 ;ClubHeist.c:404: playerDancing = 1;
      000C69 06 01            [ 8] 2962 	ld	b, #0x01
      000C6B 18 2E            [12] 2963 	jr	00179$
      000C6D                       2964 00122$:
                                   2965 ;ClubHeist.c:406: else if (input & J_A) 
      000C6D E5               [16] 2966 	push	hl
      000C6E F8 0D            [12] 2967 	ldhl	sp,	#13
      000C70 CB 66            [12] 2968 	bit	4, (hl)
      000C72 E1               [12] 2969 	pop	hl
      000C73 28 26            [12] 2970 	jr	Z, 00179$
                                   2971 ;ClubHeist.c:409: animateDancing(&Player, PLAYERA);
      000C75 C5               [16] 2972 	push	bc
      000C76 3E 39            [ 8] 2973 	ld	a, #0x39
      000C78 11r00r00         [12] 2974 	ld	de, #_Player
      000C7B CDrFEr09         [24] 2975 	call	_animateDancing
      000C7E C1               [12] 2976 	pop	bc
                                   2977 ;ClubHeist.c:410: if(moves[movesMade++] != move){
      000C7F 79               [ 4] 2978 	ld	a, c
      000C80 F8 0C            [12] 2979 	ldhl	sp,	#12
      000C82 4E               [ 8] 2980 	ld	c, (hl)
      000C83 6F               [ 4] 2981 	ld	l, a
                                   2982 ;	spillPairReg hl
                                   2983 ;	spillPairReg hl
      000C84 07               [ 4] 2984 	rlca
      000C85 9F               [ 4] 2985 	sbc	a, a
      000C86 47               [ 4] 2986 	ld	b, a
      000C87 5D               [ 4] 2987 	ld	e, l
      000C88 50               [ 4] 2988 	ld	d, b
      000C89 21 00 00         [12] 2989 	ld	hl, #0
      000C8C 39               [ 8] 2990 	add	hl, sp
      000C8D 19               [ 8] 2991 	add	hl, de
      000C8E 7E               [ 8] 2992 	ld	a, (hl)
      000C8F D6 04            [ 8] 2993 	sub	a, #0x04
      000C91 28 06            [12] 2994 	jr	Z, 00118$
                                   2995 ;ClubHeist.c:411: incorrect++;
      000C93 F8 0D            [12] 2996 	ldhl	sp,	#13
      000C95 7E               [ 8] 2997 	ld	a, (hl)
      000C96 F8 08            [12] 2998 	ldhl	sp,	#8
      000C98 77               [ 8] 2999 	ld	(hl), a
      000C99                       3000 00118$:
                                   3001 ;ClubHeist.c:413: playerDancing = 1;
      000C99 06 01            [ 8] 3002 	ld	b, #0x01
                                   3003 ;ClubHeist.c:415: for(int i = 0; i < 40 && playerDancing; i++){
      000C9B                       3004 00179$:
      000C9B AF               [ 4] 3005 	xor	a, a
      000C9C F8 0C            [12] 3006 	ldhl	sp,	#12
      000C9E 22               [ 8] 3007 	ld	(hl+), a
      000C9F 77               [ 8] 3008 	ld	(hl), a
      000CA0                       3009 00152$:
      000CA0 F8 0C            [12] 3010 	ldhl	sp,	#12
      000CA2 2A               [ 8] 3011 	ld	a, (hl+)
      000CA3 D6 28            [ 8] 3012 	sub	a, #0x28
      000CA5 7E               [ 8] 3013 	ld	a, (hl)
      000CA6 DE 00            [ 8] 3014 	sbc	a, #0x00
      000CA8 56               [ 8] 3015 	ld	d, (hl)
      000CA9 3E 00            [ 8] 3016 	ld	a, #0x00
      000CAB CB 7F            [ 8] 3017 	bit	7,a
      000CAD 28 07            [12] 3018 	jr	Z, 00379$
      000CAF CB 7A            [ 8] 3019 	bit	7, d
      000CB1 20 08            [12] 3020 	jr	NZ, 00380$
      000CB3 BF               [ 4] 3021 	cp	a, a
      000CB4 18 05            [12] 3022 	jr	00380$
      000CB6                       3023 00379$:
      000CB6 CB 7A            [ 8] 3024 	bit	7, d
      000CB8 28 01            [12] 3025 	jr	Z, 00380$
      000CBA 37               [ 4] 3026 	scf
      000CBB                       3027 00380$:
      000CBB 30 10            [12] 3028 	jr	NC, 00133$
      000CBD 78               [ 4] 3029 	ld	a, b
      000CBE B7               [ 4] 3030 	or	a, a
      000CBF 28 0C            [12] 3031 	jr	Z, 00133$
                                   3032 ;ClubHeist.c:416: wait_vbl_done();
      000CC1 CDr00r00         [24] 3033 	call	_wait_vbl_done
                                   3034 ;ClubHeist.c:415: for(int i = 0; i < 40 && playerDancing; i++){
      000CC4 F8 0C            [12] 3035 	ldhl	sp,	#12
      000CC6 34               [12] 3036 	inc	(hl)
      000CC7 20 D7            [12] 3037 	jr	NZ, 00152$
      000CC9 23               [ 8] 3038 	inc	hl
      000CCA 34               [12] 3039 	inc	(hl)
      000CCB 18 D3            [12] 3040 	jr	00152$
      000CCD                       3041 00133$:
                                   3042 ;ClubHeist.c:418: if(playerDancing)
      000CCD 78               [ 4] 3043 	ld	a, b
      000CCE B7               [ 4] 3044 	or	a, a
      000CCF 28 02            [12] 3045 	jr	Z, 00135$
                                   3046 ;ClubHeist.c:420: playerDancing = 0;
      000CD1 06 00            [ 8] 3047 	ld	b, #0x00
      000CD3                       3048 00135$:
                                   3049 ;ClubHeist.c:422: animateDancing(&Player, PLAYERBASE);
      000CD3 C5               [16] 3050 	push	bc
      000CD4 3E 1D            [ 8] 3051 	ld	a, #0x1d
      000CD6 11r00r00         [12] 3052 	ld	de, #_Player
      000CD9 CDrFEr09         [24] 3053 	call	_animateDancing
      000CDC C1               [12] 3054 	pop	bc
                                   3055 ;ClubHeist.c:423: if(incorrect > 2){
      000CDD F8 08            [12] 3056 	ldhl	sp,	#8
      000CDF 5E               [ 8] 3057 	ld	e, (hl)
      000CE0 3E 02            [ 8] 3058 	ld	a,#0x02
      000CE2 57               [ 4] 3059 	ld	d,a
      000CE3 96               [ 8] 3060 	sub	a, (hl)
      000CE4 CB 7B            [ 8] 3061 	bit	7, e
      000CE6 28 07            [12] 3062 	jr	Z, 00382$
      000CE8 CB 7A            [ 8] 3063 	bit	7, d
      000CEA 20 08            [12] 3064 	jr	NZ, 00383$
      000CEC BF               [ 4] 3065 	cp	a, a
      000CED 18 05            [12] 3066 	jr	00383$
      000CEF                       3067 00382$:
      000CEF CB 7A            [ 8] 3068 	bit	7, d
      000CF1 28 01            [12] 3069 	jr	Z, 00383$
      000CF3 37               [ 4] 3070 	scf
      000CF4                       3071 00383$:
      000CF4 D2r79r0B         [16] 3072 	jp	NC, 00138$
                                   3073 ;ClubHeist.c:424: gameover();
      000CF7 C5               [16] 3074 	push	bc
      000CF8 CDrCCr09         [24] 3075 	call	_gameover
      000CFB C1               [12] 3076 	pop	bc
      000CFC C3r79r0B         [16] 3077 	jp	00138$
      000CFF                       3078 00140$:
                                   3079 ;ClubHeist.c:427: Round++;
      000CFF F8 0E            [12] 3080 	ldhl	sp,	#14
      000D01 34               [12] 3081 	inc	(hl)
      000D02 C3r9Ar0A         [16] 3082 	jp	00141$
      000D05                       3083 00143$:
                                   3084 ;ClubHeist.c:429: EndScreen();
      000D05 CDr56r0A         [24] 3085 	call	_EndScreen
                                   3086 ;ClubHeist.c:430: }
      000D08 E8 0F            [16] 3087 	add	sp, #15
      000D0A C9               [16] 3088 	ret
                                   3089 ;ClubHeist.c:432: void main(void) {
                                   3090 ;	---------------------------------
                                   3091 ; Function main
                                   3092 ; ---------------------------------
      000D0B                       3093 _main::
                                   3094 ;ClubHeist.c:433: init();
      000D0B CDr15r09         [24] 3095 	call	_init
                                   3096 ;ClubHeist.c:440: while(1) {
      000D0E                       3097 00113$:
                                   3098 ;ClubHeist.c:442: checkInput();
      000D0E CDr82r09         [24] 3099 	call	_checkInput
                                   3100 ;ClubHeist.c:443: updateSwitches();
      000D11 CDrD0r03         [24] 3101 	call	_updateSwitches
                                   3102 ;ClubHeist.c:444: wait_vbl_done();
      000D14 CDr00r00         [24] 3103 	call	_wait_vbl_done
                                   3104 ;ClubHeist.c:446: if(MoveCooldown != 0)
      000D17 21r92r16         [12] 3105 	ld	hl, #_MoveCooldown
      000D1A 7E               [ 8] 3106 	ld	a, (hl)
      000D1B B7               [ 4] 3107 	or	a, a
      000D1C 28 01            [12] 3108 	jr	Z, 00102$
                                   3109 ;ClubHeist.c:448: MoveCooldown--;
      000D1E 35               [12] 3110 	dec	(hl)
      000D1F                       3111 00102$:
                                   3112 ;ClubHeist.c:450: if(PlayerState == 1)
      000D1F FAr91r16         [16] 3113 	ld	a, (#_PlayerState)
      000D22 3D               [ 4] 3114 	dec	a
      000D23 20 5A            [12] 3115 	jr	NZ, 00109$
                                   3116 ;ClubHeist.c:452: Run_Bouncer(&Bouncer);
      000D25 11r17r00         [12] 3117 	ld	de, #_Bouncer
      000D28 CDr0Fr03         [24] 3118 	call	_Run_Bouncer
                                   3119 ;ClubHeist.c:453: if(Bouncer.timer <= 1 && MoveCooldown > 0){
      000D2B 21r21r00         [12] 3120 	ld	hl, #(_Bouncer + 10)
      000D2E 4E               [ 8] 3121 	ld	c, (hl)
      000D2F 59               [ 4] 3122 	ld	e, c
      000D30 3E 01            [ 8] 3123 	ld	a,#0x01
      000D32 57               [ 4] 3124 	ld	d,a
      000D33 91               [ 4] 3125 	sub	a, c
      000D34 CB 7B            [ 8] 3126 	bit	7, e
      000D36 28 07            [12] 3127 	jr	Z, 00168$
      000D38 CB 7A            [ 8] 3128 	bit	7, d
      000D3A 20 08            [12] 3129 	jr	NZ, 00169$
      000D3C BF               [ 4] 3130 	cp	a, a
      000D3D 18 05            [12] 3131 	jr	00169$
      000D3F                       3132 00168$:
      000D3F CB 7A            [ 8] 3133 	bit	7, d
      000D41 28 01            [12] 3134 	jr	Z, 00169$
      000D43 37               [ 4] 3135 	scf
      000D44                       3136 00169$:
      000D44 38 1C            [12] 3137 	jr	C, 00104$
      000D46 21r92r16         [12] 3138 	ld	hl, #_MoveCooldown
      000D49 5E               [ 8] 3139 	ld	e, (hl)
      000D4A AF               [ 4] 3140 	xor	a, a
      000D4B 57               [ 4] 3141 	ld	d, a
      000D4C 96               [ 8] 3142 	sub	a, (hl)
      000D4D CB 7B            [ 8] 3143 	bit	7, e
      000D4F 28 07            [12] 3144 	jr	Z, 00170$
      000D51 CB 7A            [ 8] 3145 	bit	7, d
      000D53 20 08            [12] 3146 	jr	NZ, 00171$
      000D55 BF               [ 4] 3147 	cp	a, a
      000D56 18 05            [12] 3148 	jr	00171$
      000D58                       3149 00170$:
      000D58 CB 7A            [ 8] 3150 	bit	7, d
      000D5A 28 01            [12] 3151 	jr	Z, 00171$
      000D5C 37               [ 4] 3152 	scf
      000D5D                       3153 00171$:
      000D5D 30 03            [12] 3154 	jr	NC, 00104$
                                   3155 ;ClubHeist.c:454: gameover();
      000D5F CDrCCr09         [24] 3156 	call	_gameover
      000D62                       3157 00104$:
                                   3158 ;ClubHeist.c:456: if(Box.x >= 64)
      000D62 FAr13r00         [16] 3159 	ld	a, (#(_Box + 8) + 0)
      000D65 D6 40            [ 8] 3160 	sub	a, #0x40
      000D67 38 16            [12] 3161 	jr	C, 00109$
                                   3162 ;ClubHeist.c:458: Destroy_Bouncer(&Bouncer);
      000D69 11r17r00         [12] 3163 	ld	de, #_Bouncer
      000D6C CDrDFr02         [24] 3164 	call	_Destroy_Bouncer
                                   3165 ;ClubHeist.c:459: Destroy_Box(&Box);
      000D6F 11r0Br00         [12] 3166 	ld	de, #_Box
      000D72 CDrC4r01         [24] 3167 	call	_Destroy_Box
                                   3168 ;ClubHeist.c:460: spriteIndex -= 12;
      000D75 21r8Fr16         [12] 3169 	ld	hl, #_spriteIndex
      000D78 7E               [ 8] 3170 	ld	a, (hl)
      000D79 C6 F4            [ 8] 3171 	add	a, #0xf4
      000D7B 77               [ 8] 3172 	ld	(hl), a
                                   3173 ;ClubHeist.c:461: level_two_init();
      000D7C CDr08r08         [24] 3174 	call	_level_two_init
      000D7F                       3175 00109$:
                                   3176 ;ClubHeist.c:464: if(PlayerState == 2){
      000D7F FAr91r16         [16] 3177 	ld	a, (#_PlayerState)
      000D82 D6 02            [ 8] 3178 	sub	a, #0x02
      000D84 20 88            [12] 3179 	jr	NZ, 00113$
                                   3180 ;ClubHeist.c:465: danceOff();
      000D86 CDr88r0A         [24] 3181 	call	_danceOff
                                   3182 ;ClubHeist.c:469: }
      000D89 18 83            [12] 3183 	jr	00113$
                                   3184 	.area _CODE
                                   3185 	.area _INITIALIZER
      000000                       3186 __xinit__Tileset:
      000000 00                    3187 	.db #0x00	; 0
      000001 FF                    3188 	.db #0xff	; 255
      000002 7F                    3189 	.db #0x7f	; 127
      000003 FF                    3190 	.db #0xff	; 255
      000004 7F                    3191 	.db #0x7f	; 127
      000005 9F                    3192 	.db #0x9f	; 159
      000006 7F                    3193 	.db #0x7f	; 127
      000007 DB                    3194 	.db #0xdb	; 219
      000008 7F                    3195 	.db #0x7f	; 127
      000009 F1                    3196 	.db #0xf1	; 241
      00000A 7F                    3197 	.db #0x7f	; 127
      00000B FF                    3198 	.db #0xff	; 255
      00000C 7F                    3199 	.db #0x7f	; 127
      00000D FF                    3200 	.db #0xff	; 255
      00000E 7F                    3201 	.db #0x7f	; 127
      00000F FF                    3202 	.db #0xff	; 255
      000010 00                    3203 	.db #0x00	; 0
      000011 FF                    3204 	.db #0xff	; 255
      000012 FF                    3205 	.db #0xff	; 255
      000013 FF                    3206 	.db #0xff	; 255
      000014 FF                    3207 	.db #0xff	; 255
      000015 DD                    3208 	.db #0xdd	; 221
      000016 FF                    3209 	.db #0xff	; 255
      000017 19                    3210 	.db #0x19	; 25
      000018 FF                    3211 	.db #0xff	; 255
      000019 B3                    3212 	.db #0xb3	; 179
      00001A FF                    3213 	.db #0xff	; 255
      00001B FF                    3214 	.db #0xff	; 255
      00001C FF                    3215 	.db #0xff	; 255
      00001D FF                    3216 	.db #0xff	; 255
      00001E FF                    3217 	.db #0xff	; 255
      00001F FF                    3218 	.db #0xff	; 255
      000020 00                    3219 	.db #0x00	; 0
      000021 FF                    3220 	.db #0xff	; 255
      000022 FE                    3221 	.db #0xfe	; 254
      000023 FF                    3222 	.db #0xff	; 255
      000024 FE                    3223 	.db #0xfe	; 254
      000025 F9                    3224 	.db #0xf9	; 249
      000026 FE                    3225 	.db #0xfe	; 254
      000027 DB                    3226 	.db #0xdb	; 219
      000028 FE                    3227 	.db #0xfe	; 254
      000029 8F                    3228 	.db #0x8f	; 143
      00002A FE                    3229 	.db #0xfe	; 254
      00002B FF                    3230 	.db #0xff	; 255
      00002C FE                    3231 	.db #0xfe	; 254
      00002D FF                    3232 	.db #0xff	; 255
      00002E FE                    3233 	.db #0xfe	; 254
      00002F FF                    3234 	.db #0xff	; 255
      000030 88                    3235 	.db #0x88	; 136
      000031 F7                    3236 	.db #0xf7	; 247
      000032 FF                    3237 	.db #0xff	; 255
      000033 80                    3238 	.db #0x80	; 128
      000034 88                    3239 	.db #0x88	; 136
      000035 F7                    3240 	.db #0xf7	; 247
      000036 88                    3241 	.db #0x88	; 136
      000037 F7                    3242 	.db #0xf7	; 247
      000038 88                    3243 	.db #0x88	; 136
      000039 F7                    3244 	.db #0xf7	; 247
      00003A FF                    3245 	.db #0xff	; 255
      00003B 80                    3246 	.db #0x80	; 128
      00003C 88                    3247 	.db #0x88	; 136
      00003D F7                    3248 	.db #0xf7	; 247
      00003E FF                    3249 	.db #0xff	; 255
      00003F FF                    3250 	.db #0xff	; 255
      000040 FF                    3251 	.db #0xff	; 255
      000041 FF                    3252 	.db #0xff	; 255
      000042 88                    3253 	.db #0x88	; 136
      000043 F7                    3254 	.db #0xf7	; 247
      000044 FF                    3255 	.db #0xff	; 255
      000045 80                    3256 	.db #0x80	; 128
      000046 88                    3257 	.db #0x88	; 136
      000047 F7                    3258 	.db #0xf7	; 247
      000048 88                    3259 	.db #0x88	; 136
      000049 F7                    3260 	.db #0xf7	; 247
      00004A 88                    3261 	.db #0x88	; 136
      00004B F7                    3262 	.db #0xf7	; 247
      00004C FF                    3263 	.db #0xff	; 255
      00004D 80                    3264 	.db #0x80	; 128
      00004E 88                    3265 	.db #0x88	; 136
      00004F F7                    3266 	.db #0xf7	; 247
      000050 88                    3267 	.db #0x88	; 136
      000051 F7                    3268 	.db #0xf7	; 247
      000052 88                    3269 	.db #0x88	; 136
      000053 F7                    3270 	.db #0xf7	; 247
      000054 FF                    3271 	.db #0xff	; 255
      000055 80                    3272 	.db #0x80	; 128
      000056 88                    3273 	.db #0x88	; 136
      000057 F7                    3274 	.db #0xf7	; 247
      000058 88                    3275 	.db #0x88	; 136
      000059 F7                    3276 	.db #0xf7	; 247
      00005A 88                    3277 	.db #0x88	; 136
      00005B F7                    3278 	.db #0xf7	; 247
      00005C FF                    3279 	.db #0xff	; 255
      00005D 80                    3280 	.db #0x80	; 128
      00005E 88                    3281 	.db #0x88	; 136
      00005F F7                    3282 	.db #0xf7	; 247
      000060 80                    3283 	.db #0x80	; 128
      000061 FF                    3284 	.db #0xff	; 255
      000062 80                    3285 	.db #0x80	; 128
      000063 FF                    3286 	.db #0xff	; 255
      000064 80                    3287 	.db #0x80	; 128
      000065 FF                    3288 	.db #0xff	; 255
      000066 80                    3289 	.db #0x80	; 128
      000067 FF                    3290 	.db #0xff	; 255
      000068 80                    3291 	.db #0x80	; 128
      000069 FF                    3292 	.db #0xff	; 255
      00006A 80                    3293 	.db #0x80	; 128
      00006B FF                    3294 	.db #0xff	; 255
      00006C 80                    3295 	.db #0x80	; 128
      00006D FF                    3296 	.db #0xff	; 255
      00006E FF                    3297 	.db #0xff	; 255
      00006F FF                    3298 	.db #0xff	; 255
      000070 E7                    3299 	.db #0xe7	; 231
      000071 00                    3300 	.db #0x00	; 0
      000072 DB                    3301 	.db #0xdb	; 219
      000073 00                    3302 	.db #0x00	; 0
      000074 BD                    3303 	.db #0xbd	; 189
      000075 00                    3304 	.db #0x00	; 0
      000076 7E                    3305 	.db #0x7e	; 126
      000077 00                    3306 	.db #0x00	; 0
      000078 7E                    3307 	.db #0x7e	; 126
      000079 00                    3308 	.db #0x00	; 0
      00007A BD                    3309 	.db #0xbd	; 189
      00007B 00                    3310 	.db #0x00	; 0
      00007C DB                    3311 	.db #0xdb	; 219
      00007D 00                    3312 	.db #0x00	; 0
      00007E E7                    3313 	.db #0xe7	; 231
      00007F 00                    3314 	.db #0x00	; 0
      000080 E7                    3315 	.db #0xe7	; 231
      000081 00                    3316 	.db #0x00	; 0
      000082 DB                    3317 	.db #0xdb	; 219
      000083 00                    3318 	.db #0x00	; 0
      000084 BD                    3319 	.db #0xbd	; 189
      000085 00                    3320 	.db #0x00	; 0
      000086 7E                    3321 	.db #0x7e	; 126
      000087 00                    3322 	.db #0x00	; 0
      000088 00                    3323 	.db #0x00	; 0
      000089 FF                    3324 	.db #0xff	; 255
      00008A FF                    3325 	.db #0xff	; 255
      00008B 00                    3326 	.db #0x00	; 0
      00008C FF                    3327 	.db #0xff	; 255
      00008D 00                    3328 	.db #0x00	; 0
      00008E FF                    3329 	.db #0xff	; 255
      00008F 00                    3330 	.db #0x00	; 0
      000090 E7                    3331 	.db #0xe7	; 231
      000091 80                    3332 	.db #0x80	; 128
      000092 DB                    3333 	.db #0xdb	; 219
      000093 80                    3334 	.db #0x80	; 128
      000094 BD                    3335 	.db #0xbd	; 189
      000095 80                    3336 	.db #0x80	; 128
      000096 FE                    3337 	.db #0xfe	; 254
      000097 80                    3338 	.db #0x80	; 128
      000098 80                    3339 	.db #0x80	; 128
      000099 FF                    3340 	.db #0xff	; 255
      00009A FF                    3341 	.db #0xff	; 255
      00009B 80                    3342 	.db #0x80	; 128
      00009C FF                    3343 	.db #0xff	; 255
      00009D 80                    3344 	.db #0x80	; 128
      00009E FF                    3345 	.db #0xff	; 255
      00009F 80                    3346 	.db #0x80	; 128
      0000A0 E7                    3347 	.db #0xe7	; 231
      0000A1 01                    3348 	.db #0x01	; 1
      0000A2 DB                    3349 	.db #0xdb	; 219
      0000A3 01                    3350 	.db #0x01	; 1
      0000A4 BD                    3351 	.db #0xbd	; 189
      0000A5 01                    3352 	.db #0x01	; 1
      0000A6 7F                    3353 	.db #0x7f	; 127
      0000A7 01                    3354 	.db #0x01	; 1
      0000A8 01                    3355 	.db #0x01	; 1
      0000A9 FF                    3356 	.db #0xff	; 255
      0000AA FF                    3357 	.db #0xff	; 255
      0000AB 01                    3358 	.db #0x01	; 1
      0000AC FF                    3359 	.db #0xff	; 255
      0000AD 01                    3360 	.db #0x01	; 1
      0000AE FF                    3361 	.db #0xff	; 255
      0000AF 01                    3362 	.db #0x01	; 1
      0000B0 FF                    3363 	.db #0xff	; 255
      0000B1 FF                    3364 	.db #0xff	; 255
      0000B2 00                    3365 	.db #0x00	; 0
      0000B3 00                    3366 	.db #0x00	; 0
      0000B4 FF                    3367 	.db #0xff	; 255
      0000B5 00                    3368 	.db #0x00	; 0
      0000B6 FF                    3369 	.db #0xff	; 255
      0000B7 00                    3370 	.db #0x00	; 0
      0000B8 00                    3371 	.db #0x00	; 0
      0000B9 FF                    3372 	.db #0xff	; 255
      0000BA BD                    3373 	.db #0xbd	; 189
      0000BB 00                    3374 	.db #0x00	; 0
      0000BC DB                    3375 	.db #0xdb	; 219
      0000BD 00                    3376 	.db #0x00	; 0
      0000BE E7                    3377 	.db #0xe7	; 231
      0000BF 00                    3378 	.db #0x00	; 0
      0000C0 00                    3379 	.db #0x00	; 0
      0000C1 FF                    3380 	.db #0xff	; 255
      0000C2 00                    3381 	.db #0x00	; 0
      0000C3 FF                    3382 	.db #0xff	; 255
      0000C4 00                    3383 	.db #0x00	; 0
      0000C5 FF                    3384 	.db #0xff	; 255
      0000C6 00                    3385 	.db #0x00	; 0
      0000C7 FF                    3386 	.db #0xff	; 255
      0000C8 00                    3387 	.db #0x00	; 0
      0000C9 FF                    3388 	.db #0xff	; 255
      0000CA 00                    3389 	.db #0x00	; 0
      0000CB FF                    3390 	.db #0xff	; 255
      0000CC 00                    3391 	.db #0x00	; 0
      0000CD FF                    3392 	.db #0xff	; 255
      0000CE FF                    3393 	.db #0xff	; 255
      0000CF FF                    3394 	.db #0xff	; 255
      0000D0 11                    3395 	.db #0x11	; 17
      0000D1 EF                    3396 	.db #0xef	; 239
      0000D2 11                    3397 	.db #0x11	; 17
      0000D3 EF                    3398 	.db #0xef	; 239
      0000D4 FF                    3399 	.db #0xff	; 255
      0000D5 01                    3400 	.db #0x01	; 1
      0000D6 11                    3401 	.db #0x11	; 17
      0000D7 EF                    3402 	.db #0xef	; 239
      0000D8 11                    3403 	.db #0x11	; 17
      0000D9 EF                    3404 	.db #0xef	; 239
      0000DA 11                    3405 	.db #0x11	; 17
      0000DB EF                    3406 	.db #0xef	; 239
      0000DC FF                    3407 	.db #0xff	; 255
      0000DD 01                    3408 	.db #0x01	; 1
      0000DE 11                    3409 	.db #0x11	; 17
      0000DF EF                    3410 	.db #0xef	; 239
      0000E0 FF                    3411 	.db #0xff	; 255
      0000E1 FF                    3412 	.db #0xff	; 255
      0000E2 11                    3413 	.db #0x11	; 17
      0000E3 EF                    3414 	.db #0xef	; 239
      0000E4 FF                    3415 	.db #0xff	; 255
      0000E5 01                    3416 	.db #0x01	; 1
      0000E6 11                    3417 	.db #0x11	; 17
      0000E7 EF                    3418 	.db #0xef	; 239
      0000E8 11                    3419 	.db #0x11	; 17
      0000E9 EF                    3420 	.db #0xef	; 239
      0000EA 11                    3421 	.db #0x11	; 17
      0000EB EF                    3422 	.db #0xef	; 239
      0000EC FF                    3423 	.db #0xff	; 255
      0000ED 01                    3424 	.db #0x01	; 1
      0000EE 11                    3425 	.db #0x11	; 17
      0000EF EF                    3426 	.db #0xef	; 239
      0000F0 FF                    3427 	.db #0xff	; 255
      0000F1 FF                    3428 	.db #0xff	; 255
      0000F2 10                    3429 	.db #0x10	; 16
      0000F3 EF                    3430 	.db #0xef	; 239
      0000F4 FF                    3431 	.db #0xff	; 255
      0000F5 00                    3432 	.db #0x00	; 0
      0000F6 10                    3433 	.db #0x10	; 16
      0000F7 EF                    3434 	.db #0xef	; 239
      0000F8 10                    3435 	.db #0x10	; 16
      0000F9 EF                    3436 	.db #0xef	; 239
      0000FA 10                    3437 	.db #0x10	; 16
      0000FB EF                    3438 	.db #0xef	; 239
      0000FC FF                    3439 	.db #0xff	; 255
      0000FD 00                    3440 	.db #0x00	; 0
      0000FE 10                    3441 	.db #0x10	; 16
      0000FF EF                    3442 	.db #0xef	; 239
      000100 10                    3443 	.db #0x10	; 16
      000101 EF                    3444 	.db #0xef	; 239
      000102 10                    3445 	.db #0x10	; 16
      000103 EF                    3446 	.db #0xef	; 239
      000104 FF                    3447 	.db #0xff	; 255
      000105 00                    3448 	.db #0x00	; 0
      000106 10                    3449 	.db #0x10	; 16
      000107 EF                    3450 	.db #0xef	; 239
      000108 10                    3451 	.db #0x10	; 16
      000109 EF                    3452 	.db #0xef	; 239
      00010A 10                    3453 	.db #0x10	; 16
      00010B EF                    3454 	.db #0xef	; 239
      00010C FF                    3455 	.db #0xff	; 255
      00010D 00                    3456 	.db #0x00	; 0
      00010E 10                    3457 	.db #0x10	; 16
      00010F EF                    3458 	.db #0xef	; 239
      000110 FF                    3459 	.db #0xff	; 255
      000111 EF                    3460 	.db #0xef	; 239
      000112 FF                    3461 	.db #0xff	; 255
      000113 BA                    3462 	.db #0xba	; 186
      000114 FF                    3463 	.db #0xff	; 255
      000115 EF                    3464 	.db #0xef	; 239
      000116 FF                    3465 	.db #0xff	; 255
      000117 DD                    3466 	.db #0xdd	; 221
      000118 FF                    3467 	.db #0xff	; 255
      000119 BB                    3468 	.db #0xbb	; 187
      00011A FF                    3469 	.db #0xff	; 255
      00011B EE                    3470 	.db #0xee	; 238
      00011C FF                    3471 	.db #0xff	; 255
      00011D 7B                    3472 	.db #0x7b	; 123
      00011E FF                    3473 	.db #0xff	; 255
      00011F B6                    3474 	.db #0xb6	; 182
      000120 FF                    3475 	.db #0xff	; 255
      000121 FF                    3476 	.db #0xff	; 255
      000122 FF                    3477 	.db #0xff	; 255
      000123 FF                    3478 	.db #0xff	; 255
      000124 FF                    3479 	.db #0xff	; 255
      000125 FF                    3480 	.db #0xff	; 255
      000126 FF                    3481 	.db #0xff	; 255
      000127 FF                    3482 	.db #0xff	; 255
      000128 FF                    3483 	.db #0xff	; 255
      000129 FF                    3484 	.db #0xff	; 255
      00012A FF                    3485 	.db #0xff	; 255
      00012B FF                    3486 	.db #0xff	; 255
      00012C FF                    3487 	.db #0xff	; 255
      00012D FF                    3488 	.db #0xff	; 255
      00012E FF                    3489 	.db #0xff	; 255
      00012F FF                    3490 	.db #0xff	; 255
      000130 FF                    3491 	.db #0xff	; 255
      000131 FF                    3492 	.db #0xff	; 255
      000132 FF                    3493 	.db #0xff	; 255
      000133 FF                    3494 	.db #0xff	; 255
      000134 FF                    3495 	.db #0xff	; 255
      000135 FF                    3496 	.db #0xff	; 255
      000136 FF                    3497 	.db #0xff	; 255
      000137 FF                    3498 	.db #0xff	; 255
      000138 FF                    3499 	.db #0xff	; 255
      000139 FF                    3500 	.db #0xff	; 255
      00013A FF                    3501 	.db #0xff	; 255
      00013B FF                    3502 	.db #0xff	; 255
      00013C FF                    3503 	.db #0xff	; 255
      00013D FF                    3504 	.db #0xff	; 255
      00013E FF                    3505 	.db #0xff	; 255
      00013F FF                    3506 	.db #0xff	; 255
      000140 10                    3507 	.db #0x10	; 16
      000141 EF                    3508 	.db #0xef	; 239
      000142 FF                    3509 	.db #0xff	; 255
      000143 00                    3510 	.db #0x00	; 0
      000144 10                    3511 	.db #0x10	; 16
      000145 EF                    3512 	.db #0xef	; 239
      000146 10                    3513 	.db #0x10	; 16
      000147 EF                    3514 	.db #0xef	; 239
      000148 10                    3515 	.db #0x10	; 16
      000149 EF                    3516 	.db #0xef	; 239
      00014A FF                    3517 	.db #0xff	; 255
      00014B 00                    3518 	.db #0x00	; 0
      00014C 10                    3519 	.db #0x10	; 16
      00014D EF                    3520 	.db #0xef	; 239
      00014E FF                    3521 	.db #0xff	; 255
      00014F FF                    3522 	.db #0xff	; 255
      000150 11                    3523 	.db #0x11	; 17
      000151 EF                    3524 	.db #0xef	; 239
      000152 FF                    3525 	.db #0xff	; 255
      000153 01                    3526 	.db #0x01	; 1
      000154 11                    3527 	.db #0x11	; 17
      000155 EF                    3528 	.db #0xef	; 239
      000156 11                    3529 	.db #0x11	; 17
      000157 EF                    3530 	.db #0xef	; 239
      000158 11                    3531 	.db #0x11	; 17
      000159 EF                    3532 	.db #0xef	; 239
      00015A FF                    3533 	.db #0xff	; 255
      00015B 01                    3534 	.db #0x01	; 1
      00015C 11                    3535 	.db #0x11	; 17
      00015D EF                    3536 	.db #0xef	; 239
      00015E FF                    3537 	.db #0xff	; 255
      00015F FF                    3538 	.db #0xff	; 255
      000160 E7                    3539 	.db #0xe7	; 231
      000161 80                    3540 	.db #0x80	; 128
      000162 DB                    3541 	.db #0xdb	; 219
      000163 80                    3542 	.db #0x80	; 128
      000164 BD                    3543 	.db #0xbd	; 189
      000165 80                    3544 	.db #0x80	; 128
      000166 FE                    3545 	.db #0xfe	; 254
      000167 80                    3546 	.db #0x80	; 128
      000168 FE                    3547 	.db #0xfe	; 254
      000169 80                    3548 	.db #0x80	; 128
      00016A BD                    3549 	.db #0xbd	; 189
      00016B 80                    3550 	.db #0x80	; 128
      00016C DB                    3551 	.db #0xdb	; 219
      00016D 80                    3552 	.db #0x80	; 128
      00016E E7                    3553 	.db #0xe7	; 231
      00016F 80                    3554 	.db #0x80	; 128
      000170 E7                    3555 	.db #0xe7	; 231
      000171 01                    3556 	.db #0x01	; 1
      000172 DB                    3557 	.db #0xdb	; 219
      000173 01                    3558 	.db #0x01	; 1
      000174 BD                    3559 	.db #0xbd	; 189
      000175 01                    3560 	.db #0x01	; 1
      000176 7F                    3561 	.db #0x7f	; 127
      000177 01                    3562 	.db #0x01	; 1
      000178 7F                    3563 	.db #0x7f	; 127
      000179 01                    3564 	.db #0x01	; 1
      00017A BD                    3565 	.db #0xbd	; 189
      00017B 01                    3566 	.db #0x01	; 1
      00017C DB                    3567 	.db #0xdb	; 219
      00017D 01                    3568 	.db #0x01	; 1
      00017E E7                    3569 	.db #0xe7	; 231
      00017F 01                    3570 	.db #0x01	; 1
      000180 FF                    3571 	.db #0xff	; 255
      000181 FF                    3572 	.db #0xff	; 255
      000182 01                    3573 	.db #0x01	; 1
      000183 01                    3574 	.db #0x01	; 1
      000184 FF                    3575 	.db #0xff	; 255
      000185 01                    3576 	.db #0x01	; 1
      000186 FF                    3577 	.db #0xff	; 255
      000187 01                    3578 	.db #0x01	; 1
      000188 01                    3579 	.db #0x01	; 1
      000189 FF                    3580 	.db #0xff	; 255
      00018A BD                    3581 	.db #0xbd	; 189
      00018B 01                    3582 	.db #0x01	; 1
      00018C DB                    3583 	.db #0xdb	; 219
      00018D 01                    3584 	.db #0x01	; 1
      00018E E7                    3585 	.db #0xe7	; 231
      00018F 01                    3586 	.db #0x01	; 1
      000190 FF                    3587 	.db #0xff	; 255
      000191 FF                    3588 	.db #0xff	; 255
      000192 80                    3589 	.db #0x80	; 128
      000193 80                    3590 	.db #0x80	; 128
      000194 FF                    3591 	.db #0xff	; 255
      000195 80                    3592 	.db #0x80	; 128
      000196 FF                    3593 	.db #0xff	; 255
      000197 80                    3594 	.db #0x80	; 128
      000198 80                    3595 	.db #0x80	; 128
      000199 FF                    3596 	.db #0xff	; 255
      00019A BD                    3597 	.db #0xbd	; 189
      00019B 80                    3598 	.db #0x80	; 128
      00019C DB                    3599 	.db #0xdb	; 219
      00019D 80                    3600 	.db #0x80	; 128
      00019E E7                    3601 	.db #0xe7	; 231
      00019F 80                    3602 	.db #0x80	; 128
      0001A0 7F                    3603 	.db #0x7f	; 127
      0001A1 FF                    3604 	.db #0xff	; 255
      0001A2 FF                    3605 	.db #0xff	; 255
      0001A3 80                    3606 	.db #0x80	; 128
      0001A4 C0                    3607 	.db #0xc0	; 192
      0001A5 BF                    3608 	.db #0xbf	; 191
      0001A6 C0                    3609 	.db #0xc0	; 192
      0001A7 BF                    3610 	.db #0xbf	; 191
      0001A8 CF                    3611 	.db #0xcf	; 207
      0001A9 B0                    3612 	.db #0xb0	; 176
      0001AA CF                    3613 	.db #0xcf	; 207
      0001AB B0                    3614 	.db #0xb0	; 176
      0001AC CF                    3615 	.db #0xcf	; 207
      0001AD B0                    3616 	.db #0xb0	; 176
      0001AE CF                    3617 	.db #0xcf	; 207
      0001AF B0                    3618 	.db #0xb0	; 176
      0001B0 FF                    3619 	.db #0xff	; 255
      0001B1 FF                    3620 	.db #0xff	; 255
      0001B2 FF                    3621 	.db #0xff	; 255
      0001B3 00                    3622 	.db #0x00	; 0
      0001B4 30                    3623 	.db #0x30	; 48	'0'
      0001B5 CF                    3624 	.db #0xcf	; 207
      0001B6 30                    3625 	.db #0x30	; 48	'0'
      0001B7 CF                    3626 	.db #0xcf	; 207
      0001B8 33                    3627 	.db #0x33	; 51	'3'
      0001B9 CC                    3628 	.db #0xcc	; 204
      0001BA 33                    3629 	.db #0x33	; 51	'3'
      0001BB CC                    3630 	.db #0xcc	; 204
      0001BC F3                    3631 	.db #0xf3	; 243
      0001BD 0C                    3632 	.db #0x0c	; 12
      0001BE F3                    3633 	.db #0xf3	; 243
      0001BF 0C                    3634 	.db #0x0c	; 12
      0001C0 FF                    3635 	.db #0xff	; 255
      0001C1 FF                    3636 	.db #0xff	; 255
      0001C2 FF                    3637 	.db #0xff	; 255
      0001C3 00                    3638 	.db #0x00	; 0
      0001C4 3C                    3639 	.db #0x3c	; 60
      0001C5 C3                    3640 	.db #0xc3	; 195
      0001C6 3C                    3641 	.db #0x3c	; 60
      0001C7 C3                    3642 	.db #0xc3	; 195
      0001C8 CC                    3643 	.db #0xcc	; 204
      0001C9 33                    3644 	.db #0x33	; 51	'3'
      0001CA CC                    3645 	.db #0xcc	; 204
      0001CB 33                    3646 	.db #0x33	; 51	'3'
      0001CC CC                    3647 	.db #0xcc	; 204
      0001CD 33                    3648 	.db #0x33	; 51	'3'
      0001CE CC                    3649 	.db #0xcc	; 204
      0001CF 33                    3650 	.db #0x33	; 51	'3'
      0001D0 FE                    3651 	.db #0xfe	; 254
      0001D1 FF                    3652 	.db #0xff	; 255
      0001D2 FF                    3653 	.db #0xff	; 255
      0001D3 01                    3654 	.db #0x01	; 1
      0001D4 03                    3655 	.db #0x03	; 3
      0001D5 FD                    3656 	.db #0xfd	; 253
      0001D6 03                    3657 	.db #0x03	; 3
      0001D7 FD                    3658 	.db #0xfd	; 253
      0001D8 FF                    3659 	.db #0xff	; 255
      0001D9 01                    3660 	.db #0x01	; 1
      0001DA FF                    3661 	.db #0xff	; 255
      0001DB 01                    3662 	.db #0x01	; 1
      0001DC FF                    3663 	.db #0xff	; 255
      0001DD 01                    3664 	.db #0x01	; 1
      0001DE FF                    3665 	.db #0xff	; 255
      0001DF 01                    3666 	.db #0x01	; 1
      0001E0 CC                    3667 	.db #0xcc	; 204
      0001E1 B3                    3668 	.db #0xb3	; 179
      0001E2 CC                    3669 	.db #0xcc	; 204
      0001E3 B3                    3670 	.db #0xb3	; 179
      0001E4 CF                    3671 	.db #0xcf	; 207
      0001E5 B0                    3672 	.db #0xb0	; 176
      0001E6 CF                    3673 	.db #0xcf	; 207
      0001E7 B0                    3674 	.db #0xb0	; 176
      0001E8 C0                    3675 	.db #0xc0	; 192
      0001E9 BF                    3676 	.db #0xbf	; 191
      0001EA E0                    3677 	.db #0xe0	; 224
      0001EB 9F                    3678 	.db #0x9f	; 159
      0001EC FF                    3679 	.db #0xff	; 255
      0001ED 80                    3680 	.db #0x80	; 128
      0001EE 7F                    3681 	.db #0x7f	; 127
      0001EF FF                    3682 	.db #0xff	; 255
      0001F0 33                    3683 	.db #0x33	; 51	'3'
      0001F1 CC                    3684 	.db #0xcc	; 204
      0001F2 33                    3685 	.db #0x33	; 51	'3'
      0001F3 CC                    3686 	.db #0xcc	; 204
      0001F4 33                    3687 	.db #0x33	; 51	'3'
      0001F5 CC                    3688 	.db #0xcc	; 204
      0001F6 33                    3689 	.db #0x33	; 51	'3'
      0001F7 CC                    3690 	.db #0xcc	; 204
      0001F8 30                    3691 	.db #0x30	; 48	'0'
      0001F9 CF                    3692 	.db #0xcf	; 207
      0001FA F0                    3693 	.db #0xf0	; 240
      0001FB 0F                    3694 	.db #0x0f	; 15
      0001FC FF                    3695 	.db #0xff	; 255
      0001FD 00                    3696 	.db #0x00	; 0
      0001FE FF                    3697 	.db #0xff	; 255
      0001FF FF                    3698 	.db #0xff	; 255
      000200 CC                    3699 	.db #0xcc	; 204
      000201 33                    3700 	.db #0x33	; 51	'3'
      000202 CC                    3701 	.db #0xcc	; 204
      000203 33                    3702 	.db #0x33	; 51	'3'
      000204 CC                    3703 	.db #0xcc	; 204
      000205 33                    3704 	.db #0x33	; 51	'3'
      000206 CC                    3705 	.db #0xcc	; 204
      000207 33                    3706 	.db #0x33	; 51	'3'
      000208 3C                    3707 	.db #0x3c	; 60
      000209 C3                    3708 	.db #0xc3	; 195
      00020A 3C                    3709 	.db #0x3c	; 60
      00020B C3                    3710 	.db #0xc3	; 195
      00020C FF                    3711 	.db #0xff	; 255
      00020D 00                    3712 	.db #0x00	; 0
      00020E FF                    3713 	.db #0xff	; 255
      00020F FF                    3714 	.db #0xff	; 255
      000210 FF                    3715 	.db #0xff	; 255
      000211 01                    3716 	.db #0x01	; 1
      000212 FF                    3717 	.db #0xff	; 255
      000213 01                    3718 	.db #0x01	; 1
      000214 FF                    3719 	.db #0xff	; 255
      000215 01                    3720 	.db #0x01	; 1
      000216 FF                    3721 	.db #0xff	; 255
      000217 01                    3722 	.db #0x01	; 1
      000218 03                    3723 	.db #0x03	; 3
      000219 FD                    3724 	.db #0xfd	; 253
      00021A 03                    3725 	.db #0x03	; 3
      00021B FD                    3726 	.db #0xfd	; 253
      00021C FF                    3727 	.db #0xff	; 255
      00021D 01                    3728 	.db #0x01	; 1
      00021E FE                    3729 	.db #0xfe	; 254
      00021F FF                    3730 	.db #0xff	; 255
      000220 FF                    3731 	.db #0xff	; 255
      000221 FF                    3732 	.db #0xff	; 255
      000222 FE                    3733 	.db #0xfe	; 254
      000223 81                    3734 	.db #0x81	; 129
      000224 FE                    3735 	.db #0xfe	; 254
      000225 81                    3736 	.db #0x81	; 129
      000226 FE                    3737 	.db #0xfe	; 254
      000227 81                    3738 	.db #0x81	; 129
      000228 FE                    3739 	.db #0xfe	; 254
      000229 81                    3740 	.db #0x81	; 129
      00022A FE                    3741 	.db #0xfe	; 254
      00022B 81                    3742 	.db #0x81	; 129
      00022C FE                    3743 	.db #0xfe	; 254
      00022D 81                    3744 	.db #0x81	; 129
      00022E FE                    3745 	.db #0xfe	; 254
      00022F 81                    3746 	.db #0x81	; 129
      000230 FF                    3747 	.db #0xff	; 255
      000231 FF                    3748 	.db #0xff	; 255
      000232 7F                    3749 	.db #0x7f	; 127
      000233 81                    3750 	.db #0x81	; 129
      000234 7F                    3751 	.db #0x7f	; 127
      000235 81                    3752 	.db #0x81	; 129
      000236 7F                    3753 	.db #0x7f	; 127
      000237 81                    3754 	.db #0x81	; 129
      000238 7F                    3755 	.db #0x7f	; 127
      000239 81                    3756 	.db #0x81	; 129
      00023A 7F                    3757 	.db #0x7f	; 127
      00023B 81                    3758 	.db #0x81	; 129
      00023C 7F                    3759 	.db #0x7f	; 127
      00023D 81                    3760 	.db #0x81	; 129
      00023E 7F                    3761 	.db #0x7f	; 127
      00023F 81                    3762 	.db #0x81	; 129
      000240 FE                    3763 	.db #0xfe	; 254
      000241 81                    3764 	.db #0x81	; 129
      000242 FE                    3765 	.db #0xfe	; 254
      000243 81                    3766 	.db #0x81	; 129
      000244 FE                    3767 	.db #0xfe	; 254
      000245 81                    3768 	.db #0x81	; 129
      000246 FE                    3769 	.db #0xfe	; 254
      000247 81                    3770 	.db #0x81	; 129
      000248 FE                    3771 	.db #0xfe	; 254
      000249 81                    3772 	.db #0x81	; 129
      00024A FE                    3773 	.db #0xfe	; 254
      00024B 81                    3774 	.db #0x81	; 129
      00024C FE                    3775 	.db #0xfe	; 254
      00024D 81                    3776 	.db #0x81	; 129
      00024E FE                    3777 	.db #0xfe	; 254
      00024F 81                    3778 	.db #0x81	; 129
      000250 7F                    3779 	.db #0x7f	; 127
      000251 81                    3780 	.db #0x81	; 129
      000252 7F                    3781 	.db #0x7f	; 127
      000253 81                    3782 	.db #0x81	; 129
      000254 7F                    3783 	.db #0x7f	; 127
      000255 81                    3784 	.db #0x81	; 129
      000256 7F                    3785 	.db #0x7f	; 127
      000257 81                    3786 	.db #0x81	; 129
      000258 7F                    3787 	.db #0x7f	; 127
      000259 81                    3788 	.db #0x81	; 129
      00025A 7F                    3789 	.db #0x7f	; 127
      00025B 81                    3790 	.db #0x81	; 129
      00025C 7F                    3791 	.db #0x7f	; 127
      00025D 81                    3792 	.db #0x81	; 129
      00025E 7F                    3793 	.db #0x7f	; 127
      00025F 81                    3794 	.db #0x81	; 129
      000260 FF                    3795 	.db #0xff	; 255
      000261 FF                    3796 	.db #0xff	; 255
      000262 E7                    3797 	.db #0xe7	; 231
      000263 99                    3798 	.db #0x99	; 153
      000264 E7                    3799 	.db #0xe7	; 231
      000265 99                    3800 	.db #0x99	; 153
      000266 99                    3801 	.db #0x99	; 153
      000267 E7                    3802 	.db #0xe7	; 231
      000268 99                    3803 	.db #0x99	; 153
      000269 E7                    3804 	.db #0xe7	; 231
      00026A E7                    3805 	.db #0xe7	; 231
      00026B 99                    3806 	.db #0x99	; 153
      00026C E7                    3807 	.db #0xe7	; 231
      00026D 99                    3808 	.db #0x99	; 153
      00026E FF                    3809 	.db #0xff	; 255
      00026F FF                    3810 	.db #0xff	; 255
      000270 FF                    3811 	.db #0xff	; 255
      000271 FF                    3812 	.db #0xff	; 255
      000272 99                    3813 	.db #0x99	; 153
      000273 E7                    3814 	.db #0xe7	; 231
      000274 99                    3815 	.db #0x99	; 153
      000275 E7                    3816 	.db #0xe7	; 231
      000276 E7                    3817 	.db #0xe7	; 231
      000277 99                    3818 	.db #0x99	; 153
      000278 E7                    3819 	.db #0xe7	; 231
      000279 99                    3820 	.db #0x99	; 153
      00027A 99                    3821 	.db #0x99	; 153
      00027B E7                    3822 	.db #0xe7	; 231
      00027C 99                    3823 	.db #0x99	; 153
      00027D E7                    3824 	.db #0xe7	; 231
      00027E FF                    3825 	.db #0xff	; 255
      00027F FF                    3826 	.db #0xff	; 255
      000280 10                    3827 	.db #0x10	; 16
      000281 10                    3828 	.db #0x10	; 16
      000282 18                    3829 	.db #0x18	; 24
      000283 18                    3830 	.db #0x18	; 24
      000284 1C                    3831 	.db #0x1c	; 28
      000285 1C                    3832 	.db #0x1c	; 28
      000286 FE                    3833 	.db #0xfe	; 254
      000287 FE                    3834 	.db #0xfe	; 254
      000288 FE                    3835 	.db #0xfe	; 254
      000289 FE                    3836 	.db #0xfe	; 254
      00028A 1C                    3837 	.db #0x1c	; 28
      00028B 1C                    3838 	.db #0x1c	; 28
      00028C 18                    3839 	.db #0x18	; 24
      00028D 18                    3840 	.db #0x18	; 24
      00028E 10                    3841 	.db #0x10	; 16
      00028F 10                    3842 	.db #0x10	; 16
      000290 18                    3843 	.db #0x18	; 24
      000291 18                    3844 	.db #0x18	; 24
      000292 18                    3845 	.db #0x18	; 24
      000293 18                    3846 	.db #0x18	; 24
      000294 18                    3847 	.db #0x18	; 24
      000295 18                    3848 	.db #0x18	; 24
      000296 FF                    3849 	.db #0xff	; 255
      000297 FF                    3850 	.db #0xff	; 255
      000298 7E                    3851 	.db #0x7e	; 126
      000299 7E                    3852 	.db #0x7e	; 126
      00029A 3C                    3853 	.db #0x3c	; 60
      00029B 3C                    3854 	.db #0x3c	; 60
      00029C 18                    3855 	.db #0x18	; 24
      00029D 18                    3856 	.db #0x18	; 24
      00029E 00                    3857 	.db #0x00	; 0
      00029F 00                    3858 	.db #0x00	; 0
      0002A0 08                    3859 	.db #0x08	; 8
      0002A1 08                    3860 	.db #0x08	; 8
      0002A2 18                    3861 	.db #0x18	; 24
      0002A3 18                    3862 	.db #0x18	; 24
      0002A4 38                    3863 	.db #0x38	; 56	'8'
      0002A5 38                    3864 	.db #0x38	; 56	'8'
      0002A6 7F                    3865 	.db #0x7f	; 127
      0002A7 7F                    3866 	.db #0x7f	; 127
      0002A8 7F                    3867 	.db #0x7f	; 127
      0002A9 7F                    3868 	.db #0x7f	; 127
      0002AA 38                    3869 	.db #0x38	; 56	'8'
      0002AB 38                    3870 	.db #0x38	; 56	'8'
      0002AC 18                    3871 	.db #0x18	; 24
      0002AD 18                    3872 	.db #0x18	; 24
      0002AE 08                    3873 	.db #0x08	; 8
      0002AF 08                    3874 	.db #0x08	; 8
      0002B0 00                    3875 	.db #0x00	; 0
      0002B1 00                    3876 	.db #0x00	; 0
      0002B2 18                    3877 	.db #0x18	; 24
      0002B3 18                    3878 	.db #0x18	; 24
      0002B4 3C                    3879 	.db #0x3c	; 60
      0002B5 3C                    3880 	.db #0x3c	; 60
      0002B6 7E                    3881 	.db #0x7e	; 126
      0002B7 7E                    3882 	.db #0x7e	; 126
      0002B8 FF                    3883 	.db #0xff	; 255
      0002B9 FF                    3884 	.db #0xff	; 255
      0002BA 18                    3885 	.db #0x18	; 24
      0002BB 18                    3886 	.db #0x18	; 24
      0002BC 18                    3887 	.db #0x18	; 24
      0002BD 18                    3888 	.db #0x18	; 24
      0002BE 18                    3889 	.db #0x18	; 24
      0002BF 18                    3890 	.db #0x18	; 24
      0002C0 3C                    3891 	.db #0x3c	; 60
      0002C1 3C                    3892 	.db #0x3c	; 60
      0002C2 42                    3893 	.db #0x42	; 66	'B'
      0002C3 42                    3894 	.db #0x42	; 66	'B'
      0002C4 81                    3895 	.db #0x81	; 129
      0002C5 99                    3896 	.db #0x99	; 153
      0002C6 81                    3897 	.db #0x81	; 129
      0002C7 A5                    3898 	.db #0xa5	; 165
      0002C8 81                    3899 	.db #0x81	; 129
      0002C9 BD                    3900 	.db #0xbd	; 189
      0002CA 81                    3901 	.db #0x81	; 129
      0002CB A5                    3902 	.db #0xa5	; 165
      0002CC 42                    3903 	.db #0x42	; 66	'B'
      0002CD 42                    3904 	.db #0x42	; 66	'B'
      0002CE 3C                    3905 	.db #0x3c	; 60
      0002CF 3C                    3906 	.db #0x3c	; 60
      0002D0 3C                    3907 	.db #0x3c	; 60
      0002D1 3C                    3908 	.db #0x3c	; 60
      0002D2 42                    3909 	.db #0x42	; 66	'B'
      0002D3 7A                    3910 	.db #0x7a	; 122	'z'
      0002D4 81                    3911 	.db #0x81	; 129
      0002D5 A5                    3912 	.db #0xa5	; 165
      0002D6 81                    3913 	.db #0x81	; 129
      0002D7 B9                    3914 	.db #0xb9	; 185
      0002D8 81                    3915 	.db #0x81	; 129
      0002D9 A5                    3916 	.db #0xa5	; 165
      0002DA 81                    3917 	.db #0x81	; 129
      0002DB B9                    3918 	.db #0xb9	; 185
      0002DC 42                    3919 	.db #0x42	; 66	'B'
      0002DD 42                    3920 	.db #0x42	; 66	'B'
      0002DE 3C                    3921 	.db #0x3c	; 60
      0002DF 3C                    3922 	.db #0x3c	; 60
      0002E0 00                    3923 	.db #0x00	; 0
      0002E1 00                    3924 	.db #0x00	; 0
      0002E2 07                    3925 	.db #0x07	; 7
      0002E3 07                    3926 	.db #0x07	; 7
      0002E4 0F                    3927 	.db #0x0f	; 15
      0002E5 08                    3928 	.db #0x08	; 8
      0002E6 1F                    3929 	.db #0x1f	; 31
      0002E7 1E                    3930 	.db #0x1e	; 30
      0002E8 17                    3931 	.db #0x17	; 23
      0002E9 1F                    3932 	.db #0x1f	; 31
      0002EA 17                    3933 	.db #0x17	; 23
      0002EB 18                    3934 	.db #0x18	; 24
      0002EC 08                    3935 	.db #0x08	; 8
      0002ED 0F                    3936 	.db #0x0f	; 15
      0002EE 07                    3937 	.db #0x07	; 7
      0002EF 07                    3938 	.db #0x07	; 7
      0002F0 00                    3939 	.db #0x00	; 0
      0002F1 00                    3940 	.db #0x00	; 0
      0002F2 E0                    3941 	.db #0xe0	; 224
      0002F3 E0                    3942 	.db #0xe0	; 224
      0002F4 F0                    3943 	.db #0xf0	; 240
      0002F5 10                    3944 	.db #0x10	; 16
      0002F6 F8                    3945 	.db #0xf8	; 248
      0002F7 78                    3946 	.db #0x78	; 120	'x'
      0002F8 E8                    3947 	.db #0xe8	; 232
      0002F9 F8                    3948 	.db #0xf8	; 248
      0002FA E8                    3949 	.db #0xe8	; 232
      0002FB 18                    3950 	.db #0x18	; 24
      0002FC 10                    3951 	.db #0x10	; 16
      0002FD F0                    3952 	.db #0xf0	; 240
      0002FE EC                    3953 	.db #0xec	; 236
      0002FF EC                    3954 	.db #0xec	; 236
      000300 19                    3955 	.db #0x19	; 25
      000301 1E                    3956 	.db #0x1e	; 30
      000302 29                    3957 	.db #0x29	; 41
      000303 3E                    3958 	.db #0x3e	; 62
      000304 39                    3959 	.db #0x39	; 57	'9'
      000305 2E                    3960 	.db #0x2e	; 46
      000306 19                    3961 	.db #0x19	; 25
      000307 1E                    3962 	.db #0x1e	; 30
      000308 07                    3963 	.db #0x07	; 7
      000309 04                    3964 	.db #0x04	; 4
      00030A 09                    3965 	.db #0x09	; 9
      00030B 0F                    3966 	.db #0x0f	; 15
      00030C 0E                    3967 	.db #0x0e	; 14
      00030D 0E                    3968 	.db #0x0e	; 14
      00030E 00                    3969 	.db #0x00	; 0
      00030F 00                    3970 	.db #0x00	; 0
      000310 96                    3971 	.db #0x96	; 150
      000311 7A                    3972 	.db #0x7a	; 122	'z'
      000312 94                    3973 	.db #0x94	; 148
      000313 7C                    3974 	.db #0x7c	; 124
      000314 98                    3975 	.db #0x98	; 152
      000315 78                    3976 	.db #0x78	; 120	'x'
      000316 90                    3977 	.db #0x90	; 144
      000317 70                    3978 	.db #0x70	; 112	'p'
      000318 D0                    3979 	.db #0xd0	; 208
      000319 30                    3980 	.db #0x30	; 48	'0'
      00031A 88                    3981 	.db #0x88	; 136
      00031B F8                    3982 	.db #0xf8	; 248
      00031C 68                    3983 	.db #0x68	; 104	'h'
      00031D 78                    3984 	.db #0x78	; 120	'x'
      00031E 10                    3985 	.db #0x10	; 16
      00031F 10                    3986 	.db #0x10	; 16
      000320 00                    3987 	.db #0x00	; 0
      000321 00                    3988 	.db #0x00	; 0
      000322 00                    3989 	.db #0x00	; 0
      000323 00                    3990 	.db #0x00	; 0
      000324 07                    3991 	.db #0x07	; 7
      000325 07                    3992 	.db #0x07	; 7
      000326 0F                    3993 	.db #0x0f	; 15
      000327 08                    3994 	.db #0x08	; 8
      000328 1F                    3995 	.db #0x1f	; 31
      000329 1E                    3996 	.db #0x1e	; 30
      00032A 17                    3997 	.db #0x17	; 23
      00032B 1F                    3998 	.db #0x1f	; 31
      00032C 17                    3999 	.db #0x17	; 23
      00032D 18                    4000 	.db #0x18	; 24
      00032E 08                    4001 	.db #0x08	; 8
      00032F 0F                    4002 	.db #0x0f	; 15
      000330 00                    4003 	.db #0x00	; 0
      000331 00                    4004 	.db #0x00	; 0
      000332 00                    4005 	.db #0x00	; 0
      000333 00                    4006 	.db #0x00	; 0
      000334 E0                    4007 	.db #0xe0	; 224
      000335 E0                    4008 	.db #0xe0	; 224
      000336 F0                    4009 	.db #0xf0	; 240
      000337 10                    4010 	.db #0x10	; 16
      000338 F8                    4011 	.db #0xf8	; 248
      000339 78                    4012 	.db #0x78	; 120	'x'
      00033A E8                    4013 	.db #0xe8	; 232
      00033B F8                    4014 	.db #0xf8	; 248
      00033C E8                    4015 	.db #0xe8	; 232
      00033D 18                    4016 	.db #0x18	; 24
      00033E 10                    4017 	.db #0x10	; 16
      00033F F0                    4018 	.db #0xf0	; 240
      000340 07                    4019 	.db #0x07	; 7
      000341 07                    4020 	.db #0x07	; 7
      000342 19                    4021 	.db #0x19	; 25
      000343 1E                    4022 	.db #0x1e	; 30
      000344 29                    4023 	.db #0x29	; 41
      000345 3E                    4024 	.db #0x3e	; 62
      000346 39                    4025 	.db #0x39	; 57	'9'
      000347 2E                    4026 	.db #0x2e	; 46
      000348 19                    4027 	.db #0x19	; 25
      000349 1E                    4028 	.db #0x1e	; 30
      00034A 1F                    4029 	.db #0x1f	; 31
      00034B 1C                    4030 	.db #0x1c	; 28
      00034C 21                    4031 	.db #0x21	; 33
      00034D 3F                    4032 	.db #0x3f	; 63
      00034E 1F                    4033 	.db #0x1f	; 31
      00034F 1F                    4034 	.db #0x1f	; 31
      000350 E0                    4035 	.db #0xe0	; 224
      000351 E0                    4036 	.db #0xe0	; 224
      000352 98                    4037 	.db #0x98	; 152
      000353 78                    4038 	.db #0x78	; 120	'x'
      000354 94                    4039 	.db #0x94	; 148
      000355 7C                    4040 	.db #0x7c	; 124
      000356 9C                    4041 	.db #0x9c	; 156
      000357 74                    4042 	.db #0x74	; 116	't'
      000358 98                    4043 	.db #0x98	; 152
      000359 78                    4044 	.db #0x78	; 120	'x'
      00035A F8                    4045 	.db #0xf8	; 248
      00035B 38                    4046 	.db #0x38	; 56	'8'
      00035C 84                    4047 	.db #0x84	; 132
      00035D FC                    4048 	.db #0xfc	; 252
      00035E F8                    4049 	.db #0xf8	; 248
      00035F F8                    4050 	.db #0xf8	; 248
      000360 00                    4051 	.db #0x00	; 0
      000361 00                    4052 	.db #0x00	; 0
      000362 07                    4053 	.db #0x07	; 7
      000363 07                    4054 	.db #0x07	; 7
      000364 0F                    4055 	.db #0x0f	; 15
      000365 08                    4056 	.db #0x08	; 8
      000366 1F                    4057 	.db #0x1f	; 31
      000367 1E                    4058 	.db #0x1e	; 30
      000368 17                    4059 	.db #0x17	; 23
      000369 1F                    4060 	.db #0x1f	; 31
      00036A 17                    4061 	.db #0x17	; 23
      00036B 18                    4062 	.db #0x18	; 24
      00036C 08                    4063 	.db #0x08	; 8
      00036D 0F                    4064 	.db #0x0f	; 15
      00036E 37                    4065 	.db #0x37	; 55	'7'
      00036F 37                    4066 	.db #0x37	; 55	'7'
      000370 00                    4067 	.db #0x00	; 0
      000371 00                    4068 	.db #0x00	; 0
      000372 E0                    4069 	.db #0xe0	; 224
      000373 E0                    4070 	.db #0xe0	; 224
      000374 F0                    4071 	.db #0xf0	; 240
      000375 10                    4072 	.db #0x10	; 16
      000376 F8                    4073 	.db #0xf8	; 248
      000377 78                    4074 	.db #0x78	; 120	'x'
      000378 E8                    4075 	.db #0xe8	; 232
      000379 F8                    4076 	.db #0xf8	; 248
      00037A E8                    4077 	.db #0xe8	; 232
      00037B 18                    4078 	.db #0x18	; 24
      00037C 10                    4079 	.db #0x10	; 16
      00037D F0                    4080 	.db #0xf0	; 240
      00037E EC                    4081 	.db #0xec	; 236
      00037F EC                    4082 	.db #0xec	; 236
      000380 69                    4083 	.db #0x69	; 105	'i'
      000381 5E                    4084 	.db #0x5e	; 94
      000382 29                    4085 	.db #0x29	; 41
      000383 3E                    4086 	.db #0x3e	; 62
      000384 19                    4087 	.db #0x19	; 25
      000385 1E                    4088 	.db #0x1e	; 30
      000386 09                    4089 	.db #0x09	; 9
      000387 0E                    4090 	.db #0x0e	; 14
      000388 07                    4091 	.db #0x07	; 7
      000389 04                    4092 	.db #0x04	; 4
      00038A 09                    4093 	.db #0x09	; 9
      00038B 0F                    4094 	.db #0x0f	; 15
      00038C 0E                    4095 	.db #0x0e	; 14
      00038D 0E                    4096 	.db #0x0e	; 14
      00038E 00                    4097 	.db #0x00	; 0
      00038F 00                    4098 	.db #0x00	; 0
      000390 96                    4099 	.db #0x96	; 150
      000391 7A                    4100 	.db #0x7a	; 122	'z'
      000392 94                    4101 	.db #0x94	; 148
      000393 7C                    4102 	.db #0x7c	; 124
      000394 98                    4103 	.db #0x98	; 152
      000395 78                    4104 	.db #0x78	; 120	'x'
      000396 90                    4105 	.db #0x90	; 144
      000397 70                    4106 	.db #0x70	; 112	'p'
      000398 E0                    4107 	.db #0xe0	; 224
      000399 20                    4108 	.db #0x20	; 32
      00039A 90                    4109 	.db #0x90	; 144
      00039B F0                    4110 	.db #0xf0	; 240
      00039C 70                    4111 	.db #0x70	; 112	'p'
      00039D 70                    4112 	.db #0x70	; 112	'p'
      00039E 00                    4113 	.db #0x00	; 0
      00039F 00                    4114 	.db #0x00	; 0
      0003A0 00                    4115 	.db #0x00	; 0
      0003A1 00                    4116 	.db #0x00	; 0
      0003A2 07                    4117 	.db #0x07	; 7
      0003A3 07                    4118 	.db #0x07	; 7
      0003A4 0F                    4119 	.db #0x0f	; 15
      0003A5 08                    4120 	.db #0x08	; 8
      0003A6 1F                    4121 	.db #0x1f	; 31
      0003A7 1E                    4122 	.db #0x1e	; 30
      0003A8 17                    4123 	.db #0x17	; 23
      0003A9 1F                    4124 	.db #0x1f	; 31
      0003AA 17                    4125 	.db #0x17	; 23
      0003AB 18                    4126 	.db #0x18	; 24
      0003AC 08                    4127 	.db #0x08	; 8
      0003AD 0F                    4128 	.db #0x0f	; 15
      0003AE 37                    4129 	.db #0x37	; 55	'7'
      0003AF 37                    4130 	.db #0x37	; 55	'7'
      0003B0 00                    4131 	.db #0x00	; 0
      0003B1 00                    4132 	.db #0x00	; 0
      0003B2 E0                    4133 	.db #0xe0	; 224
      0003B3 E0                    4134 	.db #0xe0	; 224
      0003B4 F0                    4135 	.db #0xf0	; 240
      0003B5 10                    4136 	.db #0x10	; 16
      0003B6 F8                    4137 	.db #0xf8	; 248
      0003B7 78                    4138 	.db #0x78	; 120	'x'
      0003B8 E8                    4139 	.db #0xe8	; 232
      0003B9 F8                    4140 	.db #0xf8	; 248
      0003BA E8                    4141 	.db #0xe8	; 232
      0003BB 18                    4142 	.db #0x18	; 24
      0003BC 10                    4143 	.db #0x10	; 16
      0003BD F0                    4144 	.db #0xf0	; 240
      0003BE EC                    4145 	.db #0xec	; 236
      0003BF EC                    4146 	.db #0xec	; 236
      0003C0 69                    4147 	.db #0x69	; 105	'i'
      0003C1 5E                    4148 	.db #0x5e	; 94
      0003C2 29                    4149 	.db #0x29	; 41
      0003C3 3E                    4150 	.db #0x3e	; 62
      0003C4 19                    4151 	.db #0x19	; 25
      0003C5 1E                    4152 	.db #0x1e	; 30
      0003C6 09                    4153 	.db #0x09	; 9
      0003C7 0E                    4154 	.db #0x0e	; 14
      0003C8 0F                    4155 	.db #0x0f	; 15
      0003C9 0C                    4156 	.db #0x0c	; 12
      0003CA 11                    4157 	.db #0x11	; 17
      0003CB 1F                    4158 	.db #0x1f	; 31
      0003CC 13                    4159 	.db #0x13	; 19
      0003CD 1F                    4160 	.db #0x1f	; 31
      0003CE 0C                    4161 	.db #0x0c	; 12
      0003CF 0C                    4162 	.db #0x0c	; 12
      0003D0 96                    4163 	.db #0x96	; 150
      0003D1 7A                    4164 	.db #0x7a	; 122	'z'
      0003D2 94                    4165 	.db #0x94	; 148
      0003D3 7C                    4166 	.db #0x7c	; 124
      0003D4 98                    4167 	.db #0x98	; 152
      0003D5 78                    4168 	.db #0x78	; 120	'x'
      0003D6 90                    4169 	.db #0x90	; 144
      0003D7 70                    4170 	.db #0x70	; 112	'p'
      0003D8 F0                    4171 	.db #0xf0	; 240
      0003D9 30                    4172 	.db #0x30	; 48	'0'
      0003DA 88                    4173 	.db #0x88	; 136
      0003DB F8                    4174 	.db #0xf8	; 248
      0003DC 48                    4175 	.db #0x48	; 72	'H'
      0003DD 78                    4176 	.db #0x78	; 120	'x'
      0003DE 30                    4177 	.db #0x30	; 48	'0'
      0003DF 30                    4178 	.db #0x30	; 48	'0'
      0003E0 00                    4179 	.db #0x00	; 0
      0003E1 00                    4180 	.db #0x00	; 0
      0003E2 07                    4181 	.db #0x07	; 7
      0003E3 07                    4182 	.db #0x07	; 7
      0003E4 0F                    4183 	.db #0x0f	; 15
      0003E5 08                    4184 	.db #0x08	; 8
      0003E6 1F                    4185 	.db #0x1f	; 31
      0003E7 1E                    4186 	.db #0x1e	; 30
      0003E8 17                    4187 	.db #0x17	; 23
      0003E9 1F                    4188 	.db #0x1f	; 31
      0003EA 17                    4189 	.db #0x17	; 23
      0003EB 18                    4190 	.db #0x18	; 24
      0003EC 08                    4191 	.db #0x08	; 8
      0003ED 0F                    4192 	.db #0x0f	; 15
      0003EE 37                    4193 	.db #0x37	; 55	'7'
      0003EF 37                    4194 	.db #0x37	; 55	'7'
      0003F0 00                    4195 	.db #0x00	; 0
      0003F1 00                    4196 	.db #0x00	; 0
      0003F2 E0                    4197 	.db #0xe0	; 224
      0003F3 E0                    4198 	.db #0xe0	; 224
      0003F4 F0                    4199 	.db #0xf0	; 240
      0003F5 10                    4200 	.db #0x10	; 16
      0003F6 F8                    4201 	.db #0xf8	; 248
      0003F7 78                    4202 	.db #0x78	; 120	'x'
      0003F8 E8                    4203 	.db #0xe8	; 232
      0003F9 F8                    4204 	.db #0xf8	; 248
      0003FA E8                    4205 	.db #0xe8	; 232
      0003FB 18                    4206 	.db #0x18	; 24
      0003FC 10                    4207 	.db #0x10	; 16
      0003FD F0                    4208 	.db #0xf0	; 240
      0003FE E0                    4209 	.db #0xe0	; 224
      0003FF E0                    4210 	.db #0xe0	; 224
      000400 69                    4211 	.db #0x69	; 105	'i'
      000401 5E                    4212 	.db #0x5e	; 94
      000402 29                    4213 	.db #0x29	; 41
      000403 3E                    4214 	.db #0x3e	; 62
      000404 19                    4215 	.db #0x19	; 25
      000405 1E                    4216 	.db #0x1e	; 30
      000406 09                    4217 	.db #0x09	; 9
      000407 0E                    4218 	.db #0x0e	; 14
      000408 0B                    4219 	.db #0x0b	; 11
      000409 0C                    4220 	.db #0x0c	; 12
      00040A 11                    4221 	.db #0x11	; 17
      00040B 1F                    4222 	.db #0x1f	; 31
      00040C 16                    4223 	.db #0x16	; 22
      00040D 1E                    4224 	.db #0x1e	; 30
      00040E 08                    4225 	.db #0x08	; 8
      00040F 08                    4226 	.db #0x08	; 8
      000410 98                    4227 	.db #0x98	; 152
      000411 78                    4228 	.db #0x78	; 120	'x'
      000412 94                    4229 	.db #0x94	; 148
      000413 7C                    4230 	.db #0x7c	; 124
      000414 9C                    4231 	.db #0x9c	; 156
      000415 74                    4232 	.db #0x74	; 116	't'
      000416 98                    4233 	.db #0x98	; 152
      000417 78                    4234 	.db #0x78	; 120	'x'
      000418 E0                    4235 	.db #0xe0	; 224
      000419 20                    4236 	.db #0x20	; 32
      00041A 90                    4237 	.db #0x90	; 144
      00041B F0                    4238 	.db #0xf0	; 240
      00041C 70                    4239 	.db #0x70	; 112	'p'
      00041D 70                    4240 	.db #0x70	; 112	'p'
      00041E 00                    4241 	.db #0x00	; 0
      00041F 00                    4242 	.db #0x00	; 0
      000420                       4243 __xinit__SpriteSet:
      000420 00                    4244 	.db #0x00	; 0
      000421 00                    4245 	.db #0x00	; 0
      000422 07                    4246 	.db #0x07	; 7
      000423 07                    4247 	.db #0x07	; 7
      000424 08                    4248 	.db #0x08	; 8
      000425 0F                    4249 	.db #0x0f	; 15
      000426 17                    4250 	.db #0x17	; 23
      000427 18                    4251 	.db #0x18	; 24
      000428 17                    4252 	.db #0x17	; 23
      000429 19                    4253 	.db #0x19	; 25
      00042A 17                    4254 	.db #0x17	; 23
      00042B 1A                    4255 	.db #0x1a	; 26
      00042C 17                    4256 	.db #0x17	; 23
      00042D 18                    4257 	.db #0x18	; 24
      00042E 08                    4258 	.db #0x08	; 8
      00042F 0F                    4259 	.db #0x0f	; 15
      000430 00                    4260 	.db #0x00	; 0
      000431 00                    4261 	.db #0x00	; 0
      000432 E0                    4262 	.db #0xe0	; 224
      000433 E0                    4263 	.db #0xe0	; 224
      000434 10                    4264 	.db #0x10	; 16
      000435 F0                    4265 	.db #0xf0	; 240
      000436 E8                    4266 	.db #0xe8	; 232
      000437 18                    4267 	.db #0x18	; 24
      000438 F8                    4268 	.db #0xf8	; 248
      000439 F8                    4269 	.db #0xf8	; 248
      00043A F8                    4270 	.db #0xf8	; 248
      00043B 38                    4271 	.db #0x38	; 56	'8'
      00043C E8                    4272 	.db #0xe8	; 232
      00043D 18                    4273 	.db #0x18	; 24
      00043E 10                    4274 	.db #0x10	; 16
      00043F F0                    4275 	.db #0xf0	; 240
      000440 07                    4276 	.db #0x07	; 7
      000441 07                    4277 	.db #0x07	; 7
      000442 04                    4278 	.db #0x04	; 4
      000443 07                    4279 	.db #0x07	; 7
      000444 0A                    4280 	.db #0x0a	; 10
      000445 0F                    4281 	.db #0x0f	; 15
      000446 0B                    4282 	.db #0x0b	; 11
      000447 0E                    4283 	.db #0x0e	; 14
      000448 05                    4284 	.db #0x05	; 5
      000449 07                    4285 	.db #0x07	; 7
      00044A 02                    4286 	.db #0x02	; 2
      00044B 03                    4287 	.db #0x03	; 3
      00044C 03                    4288 	.db #0x03	; 3
      00044D 03                    4289 	.db #0x03	; 3
      00044E 00                    4290 	.db #0x00	; 0
      00044F 00                    4291 	.db #0x00	; 0
      000450 E0                    4292 	.db #0xe0	; 224
      000451 E0                    4293 	.db #0xe0	; 224
      000452 20                    4294 	.db #0x20	; 32
      000453 E0                    4295 	.db #0xe0	; 224
      000454 50                    4296 	.db #0x50	; 80	'P'
      000455 F0                    4297 	.db #0xf0	; 240
      000456 D0                    4298 	.db #0xd0	; 208
      000457 70                    4299 	.db #0x70	; 112	'p'
      000458 A0                    4300 	.db #0xa0	; 160
      000459 E0                    4301 	.db #0xe0	; 224
      00045A 20                    4302 	.db #0x20	; 32
      00045B E0                    4303 	.db #0xe0	; 224
      00045C C0                    4304 	.db #0xc0	; 192
      00045D C0                    4305 	.db #0xc0	; 192
      00045E 00                    4306 	.db #0x00	; 0
      00045F 00                    4307 	.db #0x00	; 0
      000460 00                    4308 	.db #0x00	; 0
      000461 00                    4309 	.db #0x00	; 0
      000462 00                    4310 	.db #0x00	; 0
      000463 00                    4311 	.db #0x00	; 0
      000464 07                    4312 	.db #0x07	; 7
      000465 07                    4313 	.db #0x07	; 7
      000466 08                    4314 	.db #0x08	; 8
      000467 0F                    4315 	.db #0x0f	; 15
      000468 17                    4316 	.db #0x17	; 23
      000469 18                    4317 	.db #0x18	; 24
      00046A 17                    4318 	.db #0x17	; 23
      00046B 19                    4319 	.db #0x19	; 25
      00046C 17                    4320 	.db #0x17	; 23
      00046D 1A                    4321 	.db #0x1a	; 26
      00046E 17                    4322 	.db #0x17	; 23
      00046F 18                    4323 	.db #0x18	; 24
      000470 00                    4324 	.db #0x00	; 0
      000471 00                    4325 	.db #0x00	; 0
      000472 00                    4326 	.db #0x00	; 0
      000473 00                    4327 	.db #0x00	; 0
      000474 E0                    4328 	.db #0xe0	; 224
      000475 E0                    4329 	.db #0xe0	; 224
      000476 10                    4330 	.db #0x10	; 16
      000477 F0                    4331 	.db #0xf0	; 240
      000478 E8                    4332 	.db #0xe8	; 232
      000479 18                    4333 	.db #0x18	; 24
      00047A F8                    4334 	.db #0xf8	; 248
      00047B F8                    4335 	.db #0xf8	; 248
      00047C F8                    4336 	.db #0xf8	; 248
      00047D 38                    4337 	.db #0x38	; 56	'8'
      00047E E8                    4338 	.db #0xe8	; 232
      00047F 18                    4339 	.db #0x18	; 24
      000480 08                    4340 	.db #0x08	; 8
      000481 0F                    4341 	.db #0x0f	; 15
      000482 07                    4342 	.db #0x07	; 7
      000483 07                    4343 	.db #0x07	; 7
      000484 04                    4344 	.db #0x04	; 4
      000485 07                    4345 	.db #0x07	; 7
      000486 0A                    4346 	.db #0x0a	; 10
      000487 0F                    4347 	.db #0x0f	; 15
      000488 0B                    4348 	.db #0x0b	; 11
      000489 0E                    4349 	.db #0x0e	; 14
      00048A 05                    4350 	.db #0x05	; 5
      00048B 07                    4351 	.db #0x07	; 7
      00048C 03                    4352 	.db #0x03	; 3
      00048D 03                    4353 	.db #0x03	; 3
      00048E 00                    4354 	.db #0x00	; 0
      00048F 00                    4355 	.db #0x00	; 0
      000490 10                    4356 	.db #0x10	; 16
      000491 F0                    4357 	.db #0xf0	; 240
      000492 E0                    4358 	.db #0xe0	; 224
      000493 E0                    4359 	.db #0xe0	; 224
      000494 20                    4360 	.db #0x20	; 32
      000495 E0                    4361 	.db #0xe0	; 224
      000496 50                    4362 	.db #0x50	; 80	'P'
      000497 F0                    4363 	.db #0xf0	; 240
      000498 D0                    4364 	.db #0xd0	; 208
      000499 70                    4365 	.db #0x70	; 112	'p'
      00049A A0                    4366 	.db #0xa0	; 160
      00049B E0                    4367 	.db #0xe0	; 224
      00049C 90                    4368 	.db #0x90	; 144
      00049D F0                    4369 	.db #0xf0	; 240
      00049E 60                    4370 	.db #0x60	; 96
      00049F 60                    4371 	.db #0x60	; 96
      0004A0 00                    4372 	.db #0x00	; 0
      0004A1 00                    4373 	.db #0x00	; 0
      0004A2 00                    4374 	.db #0x00	; 0
      0004A3 00                    4375 	.db #0x00	; 0
      0004A4 07                    4376 	.db #0x07	; 7
      0004A5 07                    4377 	.db #0x07	; 7
      0004A6 08                    4378 	.db #0x08	; 8
      0004A7 0F                    4379 	.db #0x0f	; 15
      0004A8 17                    4380 	.db #0x17	; 23
      0004A9 18                    4381 	.db #0x18	; 24
      0004AA 17                    4382 	.db #0x17	; 23
      0004AB 19                    4383 	.db #0x19	; 25
      0004AC 17                    4384 	.db #0x17	; 23
      0004AD 1A                    4385 	.db #0x1a	; 26
      0004AE 17                    4386 	.db #0x17	; 23
      0004AF 18                    4387 	.db #0x18	; 24
      0004B0 00                    4388 	.db #0x00	; 0
      0004B1 00                    4389 	.db #0x00	; 0
      0004B2 00                    4390 	.db #0x00	; 0
      0004B3 00                    4391 	.db #0x00	; 0
      0004B4 E0                    4392 	.db #0xe0	; 224
      0004B5 E0                    4393 	.db #0xe0	; 224
      0004B6 10                    4394 	.db #0x10	; 16
      0004B7 F0                    4395 	.db #0xf0	; 240
      0004B8 E8                    4396 	.db #0xe8	; 232
      0004B9 18                    4397 	.db #0x18	; 24
      0004BA F8                    4398 	.db #0xf8	; 248
      0004BB F8                    4399 	.db #0xf8	; 248
      0004BC F8                    4400 	.db #0xf8	; 248
      0004BD 38                    4401 	.db #0x38	; 56	'8'
      0004BE E8                    4402 	.db #0xe8	; 232
      0004BF 18                    4403 	.db #0x18	; 24
      0004C0 08                    4404 	.db #0x08	; 8
      0004C1 0F                    4405 	.db #0x0f	; 15
      0004C2 07                    4406 	.db #0x07	; 7
      0004C3 07                    4407 	.db #0x07	; 7
      0004C4 04                    4408 	.db #0x04	; 4
      0004C5 07                    4409 	.db #0x07	; 7
      0004C6 0A                    4410 	.db #0x0a	; 10
      0004C7 0F                    4411 	.db #0x0f	; 15
      0004C8 0B                    4412 	.db #0x0b	; 11
      0004C9 0E                    4413 	.db #0x0e	; 14
      0004CA 07                    4414 	.db #0x07	; 7
      0004CB 07                    4415 	.db #0x07	; 7
      0004CC 09                    4416 	.db #0x09	; 9
      0004CD 0F                    4417 	.db #0x0f	; 15
      0004CE 07                    4418 	.db #0x07	; 7
      0004CF 07                    4419 	.db #0x07	; 7
      0004D0 10                    4420 	.db #0x10	; 16
      0004D1 F0                    4421 	.db #0xf0	; 240
      0004D2 E0                    4422 	.db #0xe0	; 224
      0004D3 E0                    4423 	.db #0xe0	; 224
      0004D4 20                    4424 	.db #0x20	; 32
      0004D5 E0                    4425 	.db #0xe0	; 224
      0004D6 50                    4426 	.db #0x50	; 80	'P'
      0004D7 F0                    4427 	.db #0xf0	; 240
      0004D8 D0                    4428 	.db #0xd0	; 208
      0004D9 70                    4429 	.db #0x70	; 112	'p'
      0004DA A0                    4430 	.db #0xa0	; 160
      0004DB E0                    4431 	.db #0xe0	; 224
      0004DC C0                    4432 	.db #0xc0	; 192
      0004DD C0                    4433 	.db #0xc0	; 192
      0004DE 00                    4434 	.db #0x00	; 0
      0004DF 00                    4435 	.db #0x00	; 0
      0004E0 07                    4436 	.db #0x07	; 7
      0004E1 07                    4437 	.db #0x07	; 7
      0004E2 04                    4438 	.db #0x04	; 4
      0004E3 07                    4439 	.db #0x07	; 7
      0004E4 0A                    4440 	.db #0x0a	; 10
      0004E5 0F                    4441 	.db #0x0f	; 15
      0004E6 0B                    4442 	.db #0x0b	; 11
      0004E7 0E                    4443 	.db #0x0e	; 14
      0004E8 05                    4444 	.db #0x05	; 5
      0004E9 07                    4445 	.db #0x07	; 7
      0004EA 02                    4446 	.db #0x02	; 2
      0004EB 03                    4447 	.db #0x03	; 3
      0004EC 03                    4448 	.db #0x03	; 3
      0004ED 03                    4449 	.db #0x03	; 3
      0004EE 00                    4450 	.db #0x00	; 0
      0004EF 00                    4451 	.db #0x00	; 0
      0004F0 E0                    4452 	.db #0xe0	; 224
      0004F1 E0                    4453 	.db #0xe0	; 224
      0004F2 20                    4454 	.db #0x20	; 32
      0004F3 E0                    4455 	.db #0xe0	; 224
      0004F4 50                    4456 	.db #0x50	; 80	'P'
      0004F5 F0                    4457 	.db #0xf0	; 240
      0004F6 D0                    4458 	.db #0xd0	; 208
      0004F7 70                    4459 	.db #0x70	; 112	'p'
      0004F8 A0                    4460 	.db #0xa0	; 160
      0004F9 E0                    4461 	.db #0xe0	; 224
      0004FA 20                    4462 	.db #0x20	; 32
      0004FB E0                    4463 	.db #0xe0	; 224
      0004FC C0                    4464 	.db #0xc0	; 192
      0004FD C0                    4465 	.db #0xc0	; 192
      0004FE 00                    4466 	.db #0x00	; 0
      0004FF 00                    4467 	.db #0x00	; 0
      000500 08                    4468 	.db #0x08	; 8
      000501 0F                    4469 	.db #0x0f	; 15
      000502 07                    4470 	.db #0x07	; 7
      000503 07                    4471 	.db #0x07	; 7
      000504 04                    4472 	.db #0x04	; 4
      000505 07                    4473 	.db #0x07	; 7
      000506 0A                    4474 	.db #0x0a	; 10
      000507 0F                    4475 	.db #0x0f	; 15
      000508 0B                    4476 	.db #0x0b	; 11
      000509 0E                    4477 	.db #0x0e	; 14
      00050A 07                    4478 	.db #0x07	; 7
      00050B 07                    4479 	.db #0x07	; 7
      00050C 09                    4480 	.db #0x09	; 9
      00050D 0F                    4481 	.db #0x0f	; 15
      00050E 07                    4482 	.db #0x07	; 7
      00050F 07                    4483 	.db #0x07	; 7
      000510 10                    4484 	.db #0x10	; 16
      000511 F0                    4485 	.db #0xf0	; 240
      000512 E0                    4486 	.db #0xe0	; 224
      000513 E0                    4487 	.db #0xe0	; 224
      000514 20                    4488 	.db #0x20	; 32
      000515 E0                    4489 	.db #0xe0	; 224
      000516 50                    4490 	.db #0x50	; 80	'P'
      000517 F0                    4491 	.db #0xf0	; 240
      000518 D0                    4492 	.db #0xd0	; 208
      000519 70                    4493 	.db #0x70	; 112	'p'
      00051A A0                    4494 	.db #0xa0	; 160
      00051B E0                    4495 	.db #0xe0	; 224
      00051C C0                    4496 	.db #0xc0	; 192
      00051D C0                    4497 	.db #0xc0	; 192
      00051E 00                    4498 	.db #0x00	; 0
      00051F 00                    4499 	.db #0x00	; 0
      000520 00                    4500 	.db #0x00	; 0
      000521 00                    4501 	.db #0x00	; 0
      000522 00                    4502 	.db #0x00	; 0
      000523 00                    4503 	.db #0x00	; 0
      000524 00                    4504 	.db #0x00	; 0
      000525 00                    4505 	.db #0x00	; 0
      000526 07                    4506 	.db #0x07	; 7
      000527 07                    4507 	.db #0x07	; 7
      000528 08                    4508 	.db #0x08	; 8
      000529 0F                    4509 	.db #0x0f	; 15
      00052A 10                    4510 	.db #0x10	; 16
      00052B 1F                    4511 	.db #0x1f	; 31
      00052C 1F                    4512 	.db #0x1f	; 31
      00052D 1F                    4513 	.db #0x1f	; 31
      00052E 1F                    4514 	.db #0x1f	; 31
      00052F 10                    4515 	.db #0x10	; 16
      000530 00                    4516 	.db #0x00	; 0
      000531 00                    4517 	.db #0x00	; 0
      000532 00                    4518 	.db #0x00	; 0
      000533 00                    4519 	.db #0x00	; 0
      000534 00                    4520 	.db #0x00	; 0
      000535 00                    4521 	.db #0x00	; 0
      000536 FF                    4522 	.db #0xff	; 255
      000537 FF                    4523 	.db #0xff	; 255
      000538 00                    4524 	.db #0x00	; 0
      000539 FF                    4525 	.db #0xff	; 255
      00053A 00                    4526 	.db #0x00	; 0
      00053B FF                    4527 	.db #0xff	; 255
      00053C FF                    4528 	.db #0xff	; 255
      00053D FF                    4529 	.db #0xff	; 255
      00053E 1F                    4530 	.db #0x1f	; 31
      00053F E0                    4531 	.db #0xe0	; 224
      000540 00                    4532 	.db #0x00	; 0
      000541 00                    4533 	.db #0x00	; 0
      000542 00                    4534 	.db #0x00	; 0
      000543 00                    4535 	.db #0x00	; 0
      000544 00                    4536 	.db #0x00	; 0
      000545 00                    4537 	.db #0x00	; 0
      000546 F8                    4538 	.db #0xf8	; 248
      000547 F8                    4539 	.db #0xf8	; 248
      000548 18                    4540 	.db #0x18	; 24
      000549 F8                    4541 	.db #0xf8	; 248
      00054A 28                    4542 	.db #0x28	; 40
      00054B F8                    4543 	.db #0xf8	; 248
      00054C E8                    4544 	.db #0xe8	; 232
      00054D F8                    4545 	.db #0xf8	; 248
      00054E E8                    4546 	.db #0xe8	; 232
      00054F 38                    4547 	.db #0x38	; 56	'8'
      000550 1F                    4548 	.db #0x1f	; 31
      000551 10                    4549 	.db #0x10	; 16
      000552 1F                    4550 	.db #0x1f	; 31
      000553 10                    4551 	.db #0x10	; 16
      000554 1F                    4552 	.db #0x1f	; 31
      000555 10                    4553 	.db #0x10	; 16
      000556 1F                    4554 	.db #0x1f	; 31
      000557 10                    4555 	.db #0x10	; 16
      000558 3F                    4556 	.db #0x3f	; 63
      000559 30                    4557 	.db #0x30	; 48	'0'
      00055A 5F                    4558 	.db #0x5f	; 95
      00055B 50                    4559 	.db #0x50	; 80	'P'
      00055C 9F                    4560 	.db #0x9f	; 159
      00055D 90                    4561 	.db #0x90	; 144
      00055E FF                    4562 	.db #0xff	; 255
      00055F F0                    4563 	.db #0xf0	; 240
      000560 1F                    4564 	.db #0x1f	; 31
      000561 E0                    4565 	.db #0xe0	; 224
      000562 1F                    4566 	.db #0x1f	; 31
      000563 E0                    4567 	.db #0xe0	; 224
      000564 FF                    4568 	.db #0xff	; 255
      000565 00                    4569 	.db #0x00	; 0
      000566 FF                    4570 	.db #0xff	; 255
      000567 00                    4571 	.db #0x00	; 0
      000568 FF                    4572 	.db #0xff	; 255
      000569 00                    4573 	.db #0x00	; 0
      00056A FF                    4574 	.db #0xff	; 255
      00056B 00                    4575 	.db #0x00	; 0
      00056C FF                    4576 	.db #0xff	; 255
      00056D 00                    4577 	.db #0x00	; 0
      00056E FF                    4578 	.db #0xff	; 255
      00056F 00                    4579 	.db #0x00	; 0
      000570 E8                    4580 	.db #0xe8	; 232
      000571 38                    4581 	.db #0x38	; 56	'8'
      000572 E8                    4582 	.db #0xe8	; 232
      000573 38                    4583 	.db #0x38	; 56	'8'
      000574 E8                    4584 	.db #0xe8	; 232
      000575 38                    4585 	.db #0x38	; 56	'8'
      000576 E8                    4586 	.db #0xe8	; 232
      000577 38                    4587 	.db #0x38	; 56	'8'
      000578 E8                    4588 	.db #0xe8	; 232
      000579 38                    4589 	.db #0x38	; 56	'8'
      00057A E8                    4590 	.db #0xe8	; 232
      00057B 38                    4591 	.db #0x38	; 56	'8'
      00057C EE                    4592 	.db #0xee	; 238
      00057D 3E                    4593 	.db #0x3e	; 62
      00057E F1                    4594 	.db #0xf1	; 241
      00057F 3F                    4595 	.db #0x3f	; 63
      000580 03                    4596 	.db #0x03	; 3
      000581 03                    4597 	.db #0x03	; 3
      000582 07                    4598 	.db #0x07	; 7
      000583 04                    4599 	.db #0x04	; 4
      000584 05                    4600 	.db #0x05	; 5
      000585 04                    4601 	.db #0x04	; 4
      000586 04                    4602 	.db #0x04	; 4
      000587 04                    4603 	.db #0x04	; 4
      000588 0E                    4604 	.db #0x0e	; 14
      000589 0E                    4605 	.db #0x0e	; 14
      00058A 1F                    4606 	.db #0x1f	; 31
      00058B 11                    4607 	.db #0x11	; 17
      00058C 1F                    4608 	.db #0x1f	; 31
      00058D 1C                    4609 	.db #0x1c	; 28
      00058E 23                    4610 	.db #0x23	; 35
      00058F 3E                    4611 	.db #0x3e	; 62
      000590 C0                    4612 	.db #0xc0	; 192
      000591 C0                    4613 	.db #0xc0	; 192
      000592 E0                    4614 	.db #0xe0	; 224
      000593 20                    4615 	.db #0x20	; 32
      000594 A0                    4616 	.db #0xa0	; 160
      000595 20                    4617 	.db #0x20	; 32
      000596 20                    4618 	.db #0x20	; 32
      000597 20                    4619 	.db #0x20	; 32
      000598 70                    4620 	.db #0x70	; 112	'p'
      000599 70                    4621 	.db #0x70	; 112	'p'
      00059A F8                    4622 	.db #0xf8	; 248
      00059B 88                    4623 	.db #0x88	; 136
      00059C F8                    4624 	.db #0xf8	; 248
      00059D 38                    4625 	.db #0x38	; 56	'8'
      00059E C4                    4626 	.db #0xc4	; 196
      00059F 7C                    4627 	.db #0x7c	; 124
      0005A0 31                    4628 	.db #0x31	; 49	'1'
      0005A1 3F                    4629 	.db #0x3f	; 63
      0005A2 18                    4630 	.db #0x18	; 24
      0005A3 1F                    4631 	.db #0x1f	; 31
      0005A4 1F                    4632 	.db #0x1f	; 31
      0005A5 17                    4633 	.db #0x17	; 23
      0005A6 1F                    4634 	.db #0x1f	; 31
      0005A7 10                    4635 	.db #0x10	; 16
      0005A8 1F                    4636 	.db #0x1f	; 31
      0005A9 10                    4637 	.db #0x10	; 16
      0005AA 08                    4638 	.db #0x08	; 8
      0005AB 0F                    4639 	.db #0x0f	; 15
      0005AC 08                    4640 	.db #0x08	; 8
      0005AD 0F                    4641 	.db #0x0f	; 15
      0005AE 09                    4642 	.db #0x09	; 9
      0005AF 0F                    4643 	.db #0x0f	; 15
      0005B0 84                    4644 	.db #0x84	; 132
      0005B1 FC                    4645 	.db #0xfc	; 252
      0005B2 78                    4646 	.db #0x78	; 120	'x'
      0005B3 F8                    4647 	.db #0xf8	; 248
      0005B4 F8                    4648 	.db #0xf8	; 248
      0005B5 88                    4649 	.db #0x88	; 136
      0005B6 F8                    4650 	.db #0xf8	; 248
      0005B7 08                    4651 	.db #0x08	; 8
      0005B8 F8                    4652 	.db #0xf8	; 248
      0005B9 08                    4653 	.db #0x08	; 8
      0005BA 10                    4654 	.db #0x10	; 16
      0005BB F0                    4655 	.db #0xf0	; 240
      0005BC 10                    4656 	.db #0x10	; 16
      0005BD F0                    4657 	.db #0xf0	; 240
      0005BE 90                    4658 	.db #0x90	; 144
      0005BF F0                    4659 	.db #0xf0	; 240
      0005C0 09                    4660 	.db #0x09	; 9
      0005C1 0F                    4661 	.db #0x0f	; 15
      0005C2 09                    4662 	.db #0x09	; 9
      0005C3 0F                    4663 	.db #0x0f	; 15
      0005C4 09                    4664 	.db #0x09	; 9
      0005C5 0F                    4665 	.db #0x0f	; 15
      0005C6 09                    4666 	.db #0x09	; 9
      0005C7 0F                    4667 	.db #0x0f	; 15
      0005C8 19                    4668 	.db #0x19	; 25
      0005C9 1F                    4669 	.db #0x1f	; 31
      0005CA 21                    4670 	.db #0x21	; 33
      0005CB 3F                    4671 	.db #0x3f	; 63
      0005CC 21                    4672 	.db #0x21	; 33
      0005CD 3F                    4673 	.db #0x3f	; 63
      0005CE 3E                    4674 	.db #0x3e	; 62
      0005CF 3E                    4675 	.db #0x3e	; 62
      0005D0 90                    4676 	.db #0x90	; 144
      0005D1 F0                    4677 	.db #0xf0	; 240
      0005D2 90                    4678 	.db #0x90	; 144
      0005D3 F0                    4679 	.db #0xf0	; 240
      0005D4 90                    4680 	.db #0x90	; 144
      0005D5 F0                    4681 	.db #0xf0	; 240
      0005D6 90                    4682 	.db #0x90	; 144
      0005D7 F0                    4683 	.db #0xf0	; 240
      0005D8 98                    4684 	.db #0x98	; 152
      0005D9 F8                    4685 	.db #0xf8	; 248
      0005DA 84                    4686 	.db #0x84	; 132
      0005DB FC                    4687 	.db #0xfc	; 252
      0005DC 84                    4688 	.db #0x84	; 132
      0005DD FC                    4689 	.db #0xfc	; 252
      0005DE 7C                    4690 	.db #0x7c	; 124
      0005DF 7C                    4691 	.db #0x7c	; 124
      0005E0 7C                    4692 	.db #0x7c	; 124
      0005E1 7C                    4693 	.db #0x7c	; 124
      0005E2 92                    4694 	.db #0x92	; 146
      0005E3 92                    4695 	.db #0x92	; 146
      0005E4 92                    4696 	.db #0x92	; 146
      0005E5 92                    4697 	.db #0x92	; 146
      0005E6 92                    4698 	.db #0x92	; 146
      0005E7 92                    4699 	.db #0x92	; 146
      0005E8 82                    4700 	.db #0x82	; 130
      0005E9 82                    4701 	.db #0x82	; 130
      0005EA 92                    4702 	.db #0x92	; 146
      0005EB 92                    4703 	.db #0x92	; 146
      0005EC 7C                    4704 	.db #0x7c	; 124
      0005ED 7C                    4705 	.db #0x7c	; 124
      0005EE 08                    4706 	.db #0x08	; 8
      0005EF 08                    4707 	.db #0x08	; 8
      0005F0 00                    4708 	.db #0x00	; 0
      0005F1 00                    4709 	.db #0x00	; 0
      0005F2 07                    4710 	.db #0x07	; 7
      0005F3 07                    4711 	.db #0x07	; 7
      0005F4 0F                    4712 	.db #0x0f	; 15
      0005F5 08                    4713 	.db #0x08	; 8
      0005F6 1F                    4714 	.db #0x1f	; 31
      0005F7 1E                    4715 	.db #0x1e	; 30
      0005F8 17                    4716 	.db #0x17	; 23
      0005F9 1F                    4717 	.db #0x1f	; 31
      0005FA 17                    4718 	.db #0x17	; 23
      0005FB 18                    4719 	.db #0x18	; 24
      0005FC 08                    4720 	.db #0x08	; 8
      0005FD 0F                    4721 	.db #0x0f	; 15
      0005FE 07                    4722 	.db #0x07	; 7
      0005FF 07                    4723 	.db #0x07	; 7
      000600 00                    4724 	.db #0x00	; 0
      000601 00                    4725 	.db #0x00	; 0
      000602 E0                    4726 	.db #0xe0	; 224
      000603 E0                    4727 	.db #0xe0	; 224
      000604 F0                    4728 	.db #0xf0	; 240
      000605 10                    4729 	.db #0x10	; 16
      000606 F8                    4730 	.db #0xf8	; 248
      000607 78                    4731 	.db #0x78	; 120	'x'
      000608 E8                    4732 	.db #0xe8	; 232
      000609 F8                    4733 	.db #0xf8	; 248
      00060A E8                    4734 	.db #0xe8	; 232
      00060B 18                    4735 	.db #0x18	; 24
      00060C 10                    4736 	.db #0x10	; 16
      00060D F0                    4737 	.db #0xf0	; 240
      00060E E0                    4738 	.db #0xe0	; 224
      00060F E0                    4739 	.db #0xe0	; 224
      000610 19                    4740 	.db #0x19	; 25
      000611 1E                    4741 	.db #0x1e	; 30
      000612 29                    4742 	.db #0x29	; 41
      000613 3E                    4743 	.db #0x3e	; 62
      000614 39                    4744 	.db #0x39	; 57	'9'
      000615 2E                    4745 	.db #0x2e	; 46
      000616 19                    4746 	.db #0x19	; 25
      000617 1E                    4747 	.db #0x1e	; 30
      000618 07                    4748 	.db #0x07	; 7
      000619 04                    4749 	.db #0x04	; 4
      00061A 09                    4750 	.db #0x09	; 9
      00061B 0F                    4751 	.db #0x0f	; 15
      00061C 0E                    4752 	.db #0x0e	; 14
      00061D 0E                    4753 	.db #0x0e	; 14
      00061E 00                    4754 	.db #0x00	; 0
      00061F 00                    4755 	.db #0x00	; 0
      000620 98                    4756 	.db #0x98	; 152
      000621 78                    4757 	.db #0x78	; 120	'x'
      000622 94                    4758 	.db #0x94	; 148
      000623 7C                    4759 	.db #0x7c	; 124
      000624 9C                    4760 	.db #0x9c	; 156
      000625 74                    4761 	.db #0x74	; 116	't'
      000626 98                    4762 	.db #0x98	; 152
      000627 78                    4763 	.db #0x78	; 120	'x'
      000628 E0                    4764 	.db #0xe0	; 224
      000629 20                    4765 	.db #0x20	; 32
      00062A 90                    4766 	.db #0x90	; 144
      00062B F0                    4767 	.db #0xf0	; 240
      00062C 70                    4768 	.db #0x70	; 112	'p'
      00062D 70                    4769 	.db #0x70	; 112	'p'
      00062E 00                    4770 	.db #0x00	; 0
      00062F 00                    4771 	.db #0x00	; 0
      000630 00                    4772 	.db #0x00	; 0
      000631 00                    4773 	.db #0x00	; 0
      000632 00                    4774 	.db #0x00	; 0
      000633 00                    4775 	.db #0x00	; 0
      000634 07                    4776 	.db #0x07	; 7
      000635 07                    4777 	.db #0x07	; 7
      000636 0F                    4778 	.db #0x0f	; 15
      000637 08                    4779 	.db #0x08	; 8
      000638 1F                    4780 	.db #0x1f	; 31
      000639 1E                    4781 	.db #0x1e	; 30
      00063A 17                    4782 	.db #0x17	; 23
      00063B 1F                    4783 	.db #0x1f	; 31
      00063C 17                    4784 	.db #0x17	; 23
      00063D 18                    4785 	.db #0x18	; 24
      00063E 08                    4786 	.db #0x08	; 8
      00063F 0F                    4787 	.db #0x0f	; 15
      000640 00                    4788 	.db #0x00	; 0
      000641 00                    4789 	.db #0x00	; 0
      000642 00                    4790 	.db #0x00	; 0
      000643 00                    4791 	.db #0x00	; 0
      000644 E0                    4792 	.db #0xe0	; 224
      000645 E0                    4793 	.db #0xe0	; 224
      000646 F0                    4794 	.db #0xf0	; 240
      000647 10                    4795 	.db #0x10	; 16
      000648 F8                    4796 	.db #0xf8	; 248
      000649 78                    4797 	.db #0x78	; 120	'x'
      00064A E8                    4798 	.db #0xe8	; 232
      00064B F8                    4799 	.db #0xf8	; 248
      00064C E8                    4800 	.db #0xe8	; 232
      00064D 18                    4801 	.db #0x18	; 24
      00064E 10                    4802 	.db #0x10	; 16
      00064F F0                    4803 	.db #0xf0	; 240
      000650 0F                    4804 	.db #0x0f	; 15
      000651 0F                    4805 	.db #0x0f	; 15
      000652 19                    4806 	.db #0x19	; 25
      000653 1E                    4807 	.db #0x1e	; 30
      000654 29                    4808 	.db #0x29	; 41
      000655 3E                    4809 	.db #0x3e	; 62
      000656 39                    4810 	.db #0x39	; 57	'9'
      000657 2E                    4811 	.db #0x2e	; 46
      000658 17                    4812 	.db #0x17	; 23
      000659 14                    4813 	.db #0x14	; 20
      00065A 03                    4814 	.db #0x03	; 3
      00065B 03                    4815 	.db #0x03	; 3
      00065C 00                    4816 	.db #0x00	; 0
      00065D 00                    4817 	.db #0x00	; 0
      00065E 00                    4818 	.db #0x00	; 0
      00065F 00                    4819 	.db #0x00	; 0
      000660 F8                    4820 	.db #0xf8	; 248
      000661 F8                    4821 	.db #0xf8	; 248
      000662 94                    4822 	.db #0x94	; 148
      000663 7C                    4823 	.db #0x7c	; 124
      000664 9C                    4824 	.db #0x9c	; 156
      000665 74                    4825 	.db #0x74	; 116	't'
      000666 98                    4826 	.db #0x98	; 152
      000667 78                    4827 	.db #0x78	; 120	'x'
      000668 E0                    4828 	.db #0xe0	; 224
      000669 20                    4829 	.db #0x20	; 32
      00066A D0                    4830 	.db #0xd0	; 208
      00066B 30                    4831 	.db #0x30	; 48	'0'
      00066C 90                    4832 	.db #0x90	; 144
      00066D F0                    4833 	.db #0xf0	; 240
      00066E 60                    4834 	.db #0x60	; 96
      00066F 60                    4835 	.db #0x60	; 96
      000670 00                    4836 	.db #0x00	; 0
      000671 00                    4837 	.db #0x00	; 0
      000672 00                    4838 	.db #0x00	; 0
      000673 00                    4839 	.db #0x00	; 0
      000674 07                    4840 	.db #0x07	; 7
      000675 07                    4841 	.db #0x07	; 7
      000676 0F                    4842 	.db #0x0f	; 15
      000677 08                    4843 	.db #0x08	; 8
      000678 1F                    4844 	.db #0x1f	; 31
      000679 1E                    4845 	.db #0x1e	; 30
      00067A 17                    4846 	.db #0x17	; 23
      00067B 1F                    4847 	.db #0x1f	; 31
      00067C 17                    4848 	.db #0x17	; 23
      00067D 18                    4849 	.db #0x18	; 24
      00067E 08                    4850 	.db #0x08	; 8
      00067F 0F                    4851 	.db #0x0f	; 15
      000680 00                    4852 	.db #0x00	; 0
      000681 00                    4853 	.db #0x00	; 0
      000682 00                    4854 	.db #0x00	; 0
      000683 00                    4855 	.db #0x00	; 0
      000684 E0                    4856 	.db #0xe0	; 224
      000685 E0                    4857 	.db #0xe0	; 224
      000686 F0                    4858 	.db #0xf0	; 240
      000687 10                    4859 	.db #0x10	; 16
      000688 F8                    4860 	.db #0xf8	; 248
      000689 78                    4861 	.db #0x78	; 120	'x'
      00068A E8                    4862 	.db #0xe8	; 232
      00068B F8                    4863 	.db #0xf8	; 248
      00068C E8                    4864 	.db #0xe8	; 232
      00068D 18                    4865 	.db #0x18	; 24
      00068E 10                    4866 	.db #0x10	; 16
      00068F F0                    4867 	.db #0xf0	; 240
      000690 1F                    4868 	.db #0x1f	; 31
      000691 1F                    4869 	.db #0x1f	; 31
      000692 29                    4870 	.db #0x29	; 41
      000693 3E                    4871 	.db #0x3e	; 62
      000694 39                    4872 	.db #0x39	; 57	'9'
      000695 2E                    4873 	.db #0x2e	; 46
      000696 19                    4874 	.db #0x19	; 25
      000697 1E                    4875 	.db #0x1e	; 30
      000698 07                    4876 	.db #0x07	; 7
      000699 04                    4877 	.db #0x04	; 4
      00069A 0B                    4878 	.db #0x0b	; 11
      00069B 0C                    4879 	.db #0x0c	; 12
      00069C 09                    4880 	.db #0x09	; 9
      00069D 0F                    4881 	.db #0x0f	; 15
      00069E 06                    4882 	.db #0x06	; 6
      00069F 06                    4883 	.db #0x06	; 6
      0006A0 F0                    4884 	.db #0xf0	; 240
      0006A1 F0                    4885 	.db #0xf0	; 240
      0006A2 98                    4886 	.db #0x98	; 152
      0006A3 78                    4887 	.db #0x78	; 120	'x'
      0006A4 94                    4888 	.db #0x94	; 148
      0006A5 7C                    4889 	.db #0x7c	; 124
      0006A6 9C                    4890 	.db #0x9c	; 156
      0006A7 74                    4891 	.db #0x74	; 116	't'
      0006A8 E8                    4892 	.db #0xe8	; 232
      0006A9 28                    4893 	.db #0x28	; 40
      0006AA C0                    4894 	.db #0xc0	; 192
      0006AB C0                    4895 	.db #0xc0	; 192
      0006AC 00                    4896 	.db #0x00	; 0
      0006AD 00                    4897 	.db #0x00	; 0
      0006AE 00                    4898 	.db #0x00	; 0
      0006AF 00                    4899 	.db #0x00	; 0
      0006B0 00                    4900 	.db #0x00	; 0
      0006B1 00                    4901 	.db #0x00	; 0
      0006B2 07                    4902 	.db #0x07	; 7
      0006B3 07                    4903 	.db #0x07	; 7
      0006B4 0F                    4904 	.db #0x0f	; 15
      0006B5 08                    4905 	.db #0x08	; 8
      0006B6 1F                    4906 	.db #0x1f	; 31
      0006B7 1E                    4907 	.db #0x1e	; 30
      0006B8 17                    4908 	.db #0x17	; 23
      0006B9 1F                    4909 	.db #0x1f	; 31
      0006BA 17                    4910 	.db #0x17	; 23
      0006BB 18                    4911 	.db #0x18	; 24
      0006BC 08                    4912 	.db #0x08	; 8
      0006BD 0F                    4913 	.db #0x0f	; 15
      0006BE 07                    4914 	.db #0x07	; 7
      0006BF 07                    4915 	.db #0x07	; 7
      0006C0 00                    4916 	.db #0x00	; 0
      0006C1 00                    4917 	.db #0x00	; 0
      0006C2 E0                    4918 	.db #0xe0	; 224
      0006C3 E0                    4919 	.db #0xe0	; 224
      0006C4 F0                    4920 	.db #0xf0	; 240
      0006C5 10                    4921 	.db #0x10	; 16
      0006C6 F8                    4922 	.db #0xf8	; 248
      0006C7 78                    4923 	.db #0x78	; 120	'x'
      0006C8 E8                    4924 	.db #0xe8	; 232
      0006C9 F8                    4925 	.db #0xf8	; 248
      0006CA E8                    4926 	.db #0xe8	; 232
      0006CB 18                    4927 	.db #0x18	; 24
      0006CC 10                    4928 	.db #0x10	; 16
      0006CD F0                    4929 	.db #0xf0	; 240
      0006CE EC                    4930 	.db #0xec	; 236
      0006CF EC                    4931 	.db #0xec	; 236
      0006D0 19                    4932 	.db #0x19	; 25
      0006D1 1E                    4933 	.db #0x1e	; 30
      0006D2 29                    4934 	.db #0x29	; 41
      0006D3 3E                    4935 	.db #0x3e	; 62
      0006D4 39                    4936 	.db #0x39	; 57	'9'
      0006D5 2E                    4937 	.db #0x2e	; 46
      0006D6 19                    4938 	.db #0x19	; 25
      0006D7 1E                    4939 	.db #0x1e	; 30
      0006D8 07                    4940 	.db #0x07	; 7
      0006D9 04                    4941 	.db #0x04	; 4
      0006DA 09                    4942 	.db #0x09	; 9
      0006DB 0F                    4943 	.db #0x0f	; 15
      0006DC 0E                    4944 	.db #0x0e	; 14
      0006DD 0E                    4945 	.db #0x0e	; 14
      0006DE 00                    4946 	.db #0x00	; 0
      0006DF 00                    4947 	.db #0x00	; 0
      0006E0 96                    4948 	.db #0x96	; 150
      0006E1 7A                    4949 	.db #0x7a	; 122	'z'
      0006E2 94                    4950 	.db #0x94	; 148
      0006E3 7C                    4951 	.db #0x7c	; 124
      0006E4 98                    4952 	.db #0x98	; 152
      0006E5 78                    4953 	.db #0x78	; 120	'x'
      0006E6 90                    4954 	.db #0x90	; 144
      0006E7 70                    4955 	.db #0x70	; 112	'p'
      0006E8 D0                    4956 	.db #0xd0	; 208
      0006E9 30                    4957 	.db #0x30	; 48	'0'
      0006EA 88                    4958 	.db #0x88	; 136
      0006EB F8                    4959 	.db #0xf8	; 248
      0006EC 68                    4960 	.db #0x68	; 104	'h'
      0006ED 78                    4961 	.db #0x78	; 120	'x'
      0006EE 10                    4962 	.db #0x10	; 16
      0006EF 10                    4963 	.db #0x10	; 16
      0006F0 00                    4964 	.db #0x00	; 0
      0006F1 00                    4965 	.db #0x00	; 0
      0006F2 07                    4966 	.db #0x07	; 7
      0006F3 07                    4967 	.db #0x07	; 7
      0006F4 0F                    4968 	.db #0x0f	; 15
      0006F5 08                    4969 	.db #0x08	; 8
      0006F6 1F                    4970 	.db #0x1f	; 31
      0006F7 1E                    4971 	.db #0x1e	; 30
      0006F8 17                    4972 	.db #0x17	; 23
      0006F9 1F                    4973 	.db #0x1f	; 31
      0006FA 17                    4974 	.db #0x17	; 23
      0006FB 18                    4975 	.db #0x18	; 24
      0006FC 08                    4976 	.db #0x08	; 8
      0006FD 0F                    4977 	.db #0x0f	; 15
      0006FE 37                    4978 	.db #0x37	; 55	'7'
      0006FF 37                    4979 	.db #0x37	; 55	'7'
      000700 00                    4980 	.db #0x00	; 0
      000701 00                    4981 	.db #0x00	; 0
      000702 E0                    4982 	.db #0xe0	; 224
      000703 E0                    4983 	.db #0xe0	; 224
      000704 F0                    4984 	.db #0xf0	; 240
      000705 10                    4985 	.db #0x10	; 16
      000706 F8                    4986 	.db #0xf8	; 248
      000707 78                    4987 	.db #0x78	; 120	'x'
      000708 E8                    4988 	.db #0xe8	; 232
      000709 F8                    4989 	.db #0xf8	; 248
      00070A E8                    4990 	.db #0xe8	; 232
      00070B 18                    4991 	.db #0x18	; 24
      00070C 10                    4992 	.db #0x10	; 16
      00070D F0                    4993 	.db #0xf0	; 240
      00070E E0                    4994 	.db #0xe0	; 224
      00070F E0                    4995 	.db #0xe0	; 224
      000710 69                    4996 	.db #0x69	; 105	'i'
      000711 5E                    4997 	.db #0x5e	; 94
      000712 29                    4998 	.db #0x29	; 41
      000713 3E                    4999 	.db #0x3e	; 62
      000714 19                    5000 	.db #0x19	; 25
      000715 1E                    5001 	.db #0x1e	; 30
      000716 09                    5002 	.db #0x09	; 9
      000717 0E                    5003 	.db #0x0e	; 14
      000718 0B                    5004 	.db #0x0b	; 11
      000719 0C                    5005 	.db #0x0c	; 12
      00071A 11                    5006 	.db #0x11	; 17
      00071B 1F                    5007 	.db #0x1f	; 31
      00071C 16                    5008 	.db #0x16	; 22
      00071D 1E                    5009 	.db #0x1e	; 30
      00071E 08                    5010 	.db #0x08	; 8
      00071F 08                    5011 	.db #0x08	; 8
      000720 98                    5012 	.db #0x98	; 152
      000721 78                    5013 	.db #0x78	; 120	'x'
      000722 94                    5014 	.db #0x94	; 148
      000723 7C                    5015 	.db #0x7c	; 124
      000724 9C                    5016 	.db #0x9c	; 156
      000725 74                    5017 	.db #0x74	; 116	't'
      000726 98                    5018 	.db #0x98	; 152
      000727 78                    5019 	.db #0x78	; 120	'x'
      000728 E0                    5020 	.db #0xe0	; 224
      000729 20                    5021 	.db #0x20	; 32
      00072A 90                    5022 	.db #0x90	; 144
      00072B F0                    5023 	.db #0xf0	; 240
      00072C 70                    5024 	.db #0x70	; 112	'p'
      00072D 70                    5025 	.db #0x70	; 112	'p'
      00072E 00                    5026 	.db #0x00	; 0
      00072F 00                    5027 	.db #0x00	; 0
      000730 00                    5028 	.db #0x00	; 0
      000731 00                    5029 	.db #0x00	; 0
      000732 00                    5030 	.db #0x00	; 0
      000733 00                    5031 	.db #0x00	; 0
      000734 07                    5032 	.db #0x07	; 7
      000735 07                    5033 	.db #0x07	; 7
      000736 0F                    5034 	.db #0x0f	; 15
      000737 08                    5035 	.db #0x08	; 8
      000738 1F                    5036 	.db #0x1f	; 31
      000739 1E                    5037 	.db #0x1e	; 30
      00073A 17                    5038 	.db #0x17	; 23
      00073B 1F                    5039 	.db #0x1f	; 31
      00073C 17                    5040 	.db #0x17	; 23
      00073D 18                    5041 	.db #0x18	; 24
      00073E 08                    5042 	.db #0x08	; 8
      00073F 0F                    5043 	.db #0x0f	; 15
      000740 00                    5044 	.db #0x00	; 0
      000741 00                    5045 	.db #0x00	; 0
      000742 00                    5046 	.db #0x00	; 0
      000743 00                    5047 	.db #0x00	; 0
      000744 E0                    5048 	.db #0xe0	; 224
      000745 E0                    5049 	.db #0xe0	; 224
      000746 F0                    5050 	.db #0xf0	; 240
      000747 10                    5051 	.db #0x10	; 16
      000748 F8                    5052 	.db #0xf8	; 248
      000749 78                    5053 	.db #0x78	; 120	'x'
      00074A E8                    5054 	.db #0xe8	; 232
      00074B F8                    5055 	.db #0xf8	; 248
      00074C E8                    5056 	.db #0xe8	; 232
      00074D 18                    5057 	.db #0x18	; 24
      00074E 10                    5058 	.db #0x10	; 16
      00074F F0                    5059 	.db #0xf0	; 240
      000750 07                    5060 	.db #0x07	; 7
      000751 07                    5061 	.db #0x07	; 7
      000752 19                    5062 	.db #0x19	; 25
      000753 1E                    5063 	.db #0x1e	; 30
      000754 29                    5064 	.db #0x29	; 41
      000755 3E                    5065 	.db #0x3e	; 62
      000756 39                    5066 	.db #0x39	; 57	'9'
      000757 2E                    5067 	.db #0x2e	; 46
      000758 19                    5068 	.db #0x19	; 25
      000759 1E                    5069 	.db #0x1e	; 30
      00075A 1F                    5070 	.db #0x1f	; 31
      00075B 1C                    5071 	.db #0x1c	; 28
      00075C 21                    5072 	.db #0x21	; 33
      00075D 3F                    5073 	.db #0x3f	; 63
      00075E 1F                    5074 	.db #0x1f	; 31
      00075F 1F                    5075 	.db #0x1f	; 31
      000760 E0                    5076 	.db #0xe0	; 224
      000761 E0                    5077 	.db #0xe0	; 224
      000762 98                    5078 	.db #0x98	; 152
      000763 78                    5079 	.db #0x78	; 120	'x'
      000764 94                    5080 	.db #0x94	; 148
      000765 7C                    5081 	.db #0x7c	; 124
      000766 9C                    5082 	.db #0x9c	; 156
      000767 74                    5083 	.db #0x74	; 116	't'
      000768 98                    5084 	.db #0x98	; 152
      000769 78                    5085 	.db #0x78	; 120	'x'
      00076A F8                    5086 	.db #0xf8	; 248
      00076B 38                    5087 	.db #0x38	; 56	'8'
      00076C 84                    5088 	.db #0x84	; 132
      00076D FC                    5089 	.db #0xfc	; 252
      00076E F8                    5090 	.db #0xf8	; 248
      00076F F8                    5091 	.db #0xf8	; 248
      000770 00                    5092 	.db #0x00	; 0
      000771 00                    5093 	.db #0x00	; 0
      000772 07                    5094 	.db #0x07	; 7
      000773 07                    5095 	.db #0x07	; 7
      000774 0F                    5096 	.db #0x0f	; 15
      000775 08                    5097 	.db #0x08	; 8
      000776 1F                    5098 	.db #0x1f	; 31
      000777 1E                    5099 	.db #0x1e	; 30
      000778 17                    5100 	.db #0x17	; 23
      000779 1F                    5101 	.db #0x1f	; 31
      00077A 17                    5102 	.db #0x17	; 23
      00077B 18                    5103 	.db #0x18	; 24
      00077C 08                    5104 	.db #0x08	; 8
      00077D 0F                    5105 	.db #0x0f	; 15
      00077E 37                    5106 	.db #0x37	; 55	'7'
      00077F 37                    5107 	.db #0x37	; 55	'7'
      000780 00                    5108 	.db #0x00	; 0
      000781 00                    5109 	.db #0x00	; 0
      000782 E0                    5110 	.db #0xe0	; 224
      000783 E0                    5111 	.db #0xe0	; 224
      000784 F0                    5112 	.db #0xf0	; 240
      000785 10                    5113 	.db #0x10	; 16
      000786 F8                    5114 	.db #0xf8	; 248
      000787 78                    5115 	.db #0x78	; 120	'x'
      000788 E8                    5116 	.db #0xe8	; 232
      000789 F8                    5117 	.db #0xf8	; 248
      00078A E8                    5118 	.db #0xe8	; 232
      00078B 18                    5119 	.db #0x18	; 24
      00078C 10                    5120 	.db #0x10	; 16
      00078D F0                    5121 	.db #0xf0	; 240
      00078E EC                    5122 	.db #0xec	; 236
      00078F EC                    5123 	.db #0xec	; 236
      000790 69                    5124 	.db #0x69	; 105	'i'
      000791 5E                    5125 	.db #0x5e	; 94
      000792 29                    5126 	.db #0x29	; 41
      000793 3E                    5127 	.db #0x3e	; 62
      000794 19                    5128 	.db #0x19	; 25
      000795 1E                    5129 	.db #0x1e	; 30
      000796 09                    5130 	.db #0x09	; 9
      000797 0E                    5131 	.db #0x0e	; 14
      000798 07                    5132 	.db #0x07	; 7
      000799 04                    5133 	.db #0x04	; 4
      00079A 09                    5134 	.db #0x09	; 9
      00079B 0F                    5135 	.db #0x0f	; 15
      00079C 0E                    5136 	.db #0x0e	; 14
      00079D 0E                    5137 	.db #0x0e	; 14
      00079E 00                    5138 	.db #0x00	; 0
      00079F 00                    5139 	.db #0x00	; 0
      0007A0 96                    5140 	.db #0x96	; 150
      0007A1 7A                    5141 	.db #0x7a	; 122	'z'
      0007A2 94                    5142 	.db #0x94	; 148
      0007A3 7C                    5143 	.db #0x7c	; 124
      0007A4 98                    5144 	.db #0x98	; 152
      0007A5 78                    5145 	.db #0x78	; 120	'x'
      0007A6 90                    5146 	.db #0x90	; 144
      0007A7 70                    5147 	.db #0x70	; 112	'p'
      0007A8 E0                    5148 	.db #0xe0	; 224
      0007A9 20                    5149 	.db #0x20	; 32
      0007AA 90                    5150 	.db #0x90	; 144
      0007AB F0                    5151 	.db #0xf0	; 240
      0007AC 70                    5152 	.db #0x70	; 112	'p'
      0007AD 70                    5153 	.db #0x70	; 112	'p'
      0007AE 00                    5154 	.db #0x00	; 0
      0007AF 00                    5155 	.db #0x00	; 0
      0007B0 00                    5156 	.db #0x00	; 0
      0007B1 00                    5157 	.db #0x00	; 0
      0007B2 07                    5158 	.db #0x07	; 7
      0007B3 07                    5159 	.db #0x07	; 7
      0007B4 0F                    5160 	.db #0x0f	; 15
      0007B5 08                    5161 	.db #0x08	; 8
      0007B6 1F                    5162 	.db #0x1f	; 31
      0007B7 1E                    5163 	.db #0x1e	; 30
      0007B8 17                    5164 	.db #0x17	; 23
      0007B9 1F                    5165 	.db #0x1f	; 31
      0007BA 17                    5166 	.db #0x17	; 23
      0007BB 18                    5167 	.db #0x18	; 24
      0007BC 08                    5168 	.db #0x08	; 8
      0007BD 0F                    5169 	.db #0x0f	; 15
      0007BE 37                    5170 	.db #0x37	; 55	'7'
      0007BF 37                    5171 	.db #0x37	; 55	'7'
      0007C0 00                    5172 	.db #0x00	; 0
      0007C1 00                    5173 	.db #0x00	; 0
      0007C2 E0                    5174 	.db #0xe0	; 224
      0007C3 E0                    5175 	.db #0xe0	; 224
      0007C4 F0                    5176 	.db #0xf0	; 240
      0007C5 10                    5177 	.db #0x10	; 16
      0007C6 F8                    5178 	.db #0xf8	; 248
      0007C7 78                    5179 	.db #0x78	; 120	'x'
      0007C8 E8                    5180 	.db #0xe8	; 232
      0007C9 F8                    5181 	.db #0xf8	; 248
      0007CA E8                    5182 	.db #0xe8	; 232
      0007CB 18                    5183 	.db #0x18	; 24
      0007CC 10                    5184 	.db #0x10	; 16
      0007CD F0                    5185 	.db #0xf0	; 240
      0007CE EC                    5186 	.db #0xec	; 236
      0007CF EC                    5187 	.db #0xec	; 236
      0007D0 69                    5188 	.db #0x69	; 105	'i'
      0007D1 5E                    5189 	.db #0x5e	; 94
      0007D2 29                    5190 	.db #0x29	; 41
      0007D3 3E                    5191 	.db #0x3e	; 62
      0007D4 19                    5192 	.db #0x19	; 25
      0007D5 1E                    5193 	.db #0x1e	; 30
      0007D6 09                    5194 	.db #0x09	; 9
      0007D7 0E                    5195 	.db #0x0e	; 14
      0007D8 0F                    5196 	.db #0x0f	; 15
      0007D9 0C                    5197 	.db #0x0c	; 12
      0007DA 11                    5198 	.db #0x11	; 17
      0007DB 1F                    5199 	.db #0x1f	; 31
      0007DC 13                    5200 	.db #0x13	; 19
      0007DD 1F                    5201 	.db #0x1f	; 31
      0007DE 0C                    5202 	.db #0x0c	; 12
      0007DF 0C                    5203 	.db #0x0c	; 12
      0007E0 96                    5204 	.db #0x96	; 150
      0007E1 7A                    5205 	.db #0x7a	; 122	'z'
      0007E2 94                    5206 	.db #0x94	; 148
      0007E3 7C                    5207 	.db #0x7c	; 124
      0007E4 98                    5208 	.db #0x98	; 152
      0007E5 78                    5209 	.db #0x78	; 120	'x'
      0007E6 90                    5210 	.db #0x90	; 144
      0007E7 70                    5211 	.db #0x70	; 112	'p'
      0007E8 F0                    5212 	.db #0xf0	; 240
      0007E9 30                    5213 	.db #0x30	; 48	'0'
      0007EA 88                    5214 	.db #0x88	; 136
      0007EB F8                    5215 	.db #0xf8	; 248
      0007EC 48                    5216 	.db #0x48	; 72	'H'
      0007ED 78                    5217 	.db #0x78	; 120	'x'
      0007EE 30                    5218 	.db #0x30	; 48	'0'
      0007EF 30                    5219 	.db #0x30	; 48	'0'
      0007F0                       5220 __xinit__ClubFront:
      0007F0 2C                    5221 	.db #0x2c	; 44
      0007F1 2C                    5222 	.db #0x2c	; 44
      0007F2 2C                    5223 	.db #0x2c	; 44
      0007F3 2C                    5224 	.db #0x2c	; 44
      0007F4 2C                    5225 	.db #0x2c	; 44
      0007F5 2C                    5226 	.db #0x2c	; 44
      0007F6 2C                    5227 	.db #0x2c	; 44
      0007F7 2C                    5228 	.db #0x2c	; 44
      0007F8 2C                    5229 	.db #0x2c	; 44
      0007F9 2C                    5230 	.db #0x2c	; 44
      0007FA 2C                    5231 	.db #0x2c	; 44
      0007FB 2C                    5232 	.db #0x2c	; 44
      0007FC 2C                    5233 	.db #0x2c	; 44
      0007FD 2C                    5234 	.db #0x2c	; 44
      0007FE 2C                    5235 	.db #0x2c	; 44
      0007FF 2C                    5236 	.db #0x2c	; 44
      000800 2C                    5237 	.db #0x2c	; 44
      000801 2C                    5238 	.db #0x2c	; 44
      000802 2C                    5239 	.db #0x2c	; 44
      000803 2C                    5240 	.db #0x2c	; 44
      000804 34                    5241 	.db #0x34	; 52	'4'
      000805 26                    5242 	.db #0x26	; 38
      000806 26                    5243 	.db #0x26	; 38
      000807 26                    5244 	.db #0x26	; 38
      000808 26                    5245 	.db #0x26	; 38
      000809 26                    5246 	.db #0x26	; 38
      00080A 26                    5247 	.db #0x26	; 38
      00080B 26                    5248 	.db #0x26	; 38
      00080C 26                    5249 	.db #0x26	; 38
      00080D 26                    5250 	.db #0x26	; 38
      00080E 26                    5251 	.db #0x26	; 38
      00080F 26                    5252 	.db #0x26	; 38
      000810 26                    5253 	.db #0x26	; 38
      000811 26                    5254 	.db #0x26	; 38
      000812 26                    5255 	.db #0x26	; 38
      000813 26                    5256 	.db #0x26	; 38
      000814 26                    5257 	.db #0x26	; 38
      000815 26                    5258 	.db #0x26	; 38
      000816 26                    5259 	.db #0x26	; 38
      000817 33                    5260 	.db #0x33	; 51	'3'
      000818 31                    5261 	.db #0x31	; 49	'1'
      000819 22                    5262 	.db #0x22	; 34
      00081A 22                    5263 	.db #0x22	; 34
      00081B 22                    5264 	.db #0x22	; 34
      00081C 22                    5265 	.db #0x22	; 34
      00081D 22                    5266 	.db #0x22	; 34
      00081E 22                    5267 	.db #0x22	; 34
      00081F 22                    5268 	.db #0x22	; 34
      000820 22                    5269 	.db #0x22	; 34
      000821 22                    5270 	.db #0x22	; 34
      000822 22                    5271 	.db #0x22	; 34
      000823 22                    5272 	.db #0x22	; 34
      000824 22                    5273 	.db #0x22	; 34
      000825 22                    5274 	.db #0x22	; 34
      000826 22                    5275 	.db #0x22	; 34
      000827 22                    5276 	.db #0x22	; 34
      000828 22                    5277 	.db #0x22	; 34
      000829 22                    5278 	.db #0x22	; 34
      00082A 22                    5279 	.db #0x22	; 34
      00082B 32                    5280 	.db #0x32	; 50	'2'
      00082C 24                    5281 	.db #0x24	; 36
      00082D 23                    5282 	.db #0x23	; 35
      00082E 23                    5283 	.db #0x23	; 35
      00082F 23                    5284 	.db #0x23	; 35
      000830 23                    5285 	.db #0x23	; 35
      000831 23                    5286 	.db #0x23	; 35
      000832 23                    5287 	.db #0x23	; 35
      000833 23                    5288 	.db #0x23	; 35
      000834 23                    5289 	.db #0x23	; 35
      000835 23                    5290 	.db #0x23	; 35
      000836 23                    5291 	.db #0x23	; 35
      000837 23                    5292 	.db #0x23	; 35
      000838 23                    5293 	.db #0x23	; 35
      000839 23                    5294 	.db #0x23	; 35
      00083A 23                    5295 	.db #0x23	; 35
      00083B 23                    5296 	.db #0x23	; 35
      00083C 23                    5297 	.db #0x23	; 35
      00083D 23                    5298 	.db #0x23	; 35
      00083E 23                    5299 	.db #0x23	; 35
      00083F 25                    5300 	.db #0x25	; 37
      000840 1F                    5301 	.db #0x1f	; 31
      000841 2A                    5302 	.db #0x2a	; 42
      000842 2A                    5303 	.db #0x2a	; 42
      000843 2A                    5304 	.db #0x2a	; 42
      000844 2A                    5305 	.db #0x2a	; 42
      000845 2A                    5306 	.db #0x2a	; 42
      000846 2A                    5307 	.db #0x2a	; 42
      000847 2A                    5308 	.db #0x2a	; 42
      000848 2A                    5309 	.db #0x2a	; 42
      000849 2A                    5310 	.db #0x2a	; 42
      00084A 2A                    5311 	.db #0x2a	; 42
      00084B 2A                    5312 	.db #0x2a	; 42
      00084C 2A                    5313 	.db #0x2a	; 42
      00084D 2A                    5314 	.db #0x2a	; 42
      00084E 2A                    5315 	.db #0x2a	; 42
      00084F 2A                    5316 	.db #0x2a	; 42
      000850 2A                    5317 	.db #0x2a	; 42
      000851 2A                    5318 	.db #0x2a	; 42
      000852 2A                    5319 	.db #0x2a	; 42
      000853 29                    5320 	.db #0x29	; 41
      000854 20                    5321 	.db #0x20	; 32
      000855 2B                    5322 	.db #0x2b	; 43
      000856 2B                    5323 	.db #0x2b	; 43
      000857 2B                    5324 	.db #0x2b	; 43
      000858 2B                    5325 	.db #0x2b	; 43
      000859 2B                    5326 	.db #0x2b	; 43
      00085A 2B                    5327 	.db #0x2b	; 43
      00085B 2B                    5328 	.db #0x2b	; 43
      00085C 2B                    5329 	.db #0x2b	; 43
      00085D 2B                    5330 	.db #0x2b	; 43
      00085E 2B                    5331 	.db #0x2b	; 43
      00085F 2B                    5332 	.db #0x2b	; 43
      000860 2B                    5333 	.db #0x2b	; 43
      000861 2B                    5334 	.db #0x2b	; 43
      000862 2B                    5335 	.db #0x2b	; 43
      000863 2B                    5336 	.db #0x2b	; 43
      000864 2B                    5337 	.db #0x2b	; 43
      000865 2B                    5338 	.db #0x2b	; 43
      000866 2B                    5339 	.db #0x2b	; 43
      000867 28                    5340 	.db #0x28	; 40
      000868 20                    5341 	.db #0x20	; 32
      000869 2B                    5342 	.db #0x2b	; 43
      00086A 2B                    5343 	.db #0x2b	; 43
      00086B 2B                    5344 	.db #0x2b	; 43
      00086C 2B                    5345 	.db #0x2b	; 43
      00086D 2B                    5346 	.db #0x2b	; 43
      00086E 2B                    5347 	.db #0x2b	; 43
      00086F 2B                    5348 	.db #0x2b	; 43
      000870 2B                    5349 	.db #0x2b	; 43
      000871 2B                    5350 	.db #0x2b	; 43
      000872 2B                    5351 	.db #0x2b	; 43
      000873 2B                    5352 	.db #0x2b	; 43
      000874 2B                    5353 	.db #0x2b	; 43
      000875 2B                    5354 	.db #0x2b	; 43
      000876 2B                    5355 	.db #0x2b	; 43
      000877 2B                    5356 	.db #0x2b	; 43
      000878 2B                    5357 	.db #0x2b	; 43
      000879 2B                    5358 	.db #0x2b	; 43
      00087A 2B                    5359 	.db #0x2b	; 43
      00087B 28                    5360 	.db #0x28	; 40
      00087C 20                    5361 	.db #0x20	; 32
      00087D 2B                    5362 	.db #0x2b	; 43
      00087E 2B                    5363 	.db #0x2b	; 43
      00087F 2B                    5364 	.db #0x2b	; 43
      000880 2B                    5365 	.db #0x2b	; 43
      000881 2B                    5366 	.db #0x2b	; 43
      000882 2B                    5367 	.db #0x2b	; 43
      000883 2B                    5368 	.db #0x2b	; 43
      000884 2B                    5369 	.db #0x2b	; 43
      000885 2B                    5370 	.db #0x2b	; 43
      000886 2B                    5371 	.db #0x2b	; 43
      000887 2B                    5372 	.db #0x2b	; 43
      000888 2B                    5373 	.db #0x2b	; 43
      000889 2B                    5374 	.db #0x2b	; 43
      00088A 2B                    5375 	.db #0x2b	; 43
      00088B 2B                    5376 	.db #0x2b	; 43
      00088C 2B                    5377 	.db #0x2b	; 43
      00088D 2B                    5378 	.db #0x2b	; 43
      00088E 2B                    5379 	.db #0x2b	; 43
      00088F 28                    5380 	.db #0x28	; 40
      000890 20                    5381 	.db #0x20	; 32
      000891 2B                    5382 	.db #0x2b	; 43
      000892 2B                    5383 	.db #0x2b	; 43
      000893 2B                    5384 	.db #0x2b	; 43
      000894 2B                    5385 	.db #0x2b	; 43
      000895 2B                    5386 	.db #0x2b	; 43
      000896 2B                    5387 	.db #0x2b	; 43
      000897 2B                    5388 	.db #0x2b	; 43
      000898 35                    5389 	.db #0x35	; 53	'5'
      000899 36                    5390 	.db #0x36	; 54	'6'
      00089A 37                    5391 	.db #0x37	; 55	'7'
      00089B 38                    5392 	.db #0x38	; 56	'8'
      00089C 2B                    5393 	.db #0x2b	; 43
      00089D 2B                    5394 	.db #0x2b	; 43
      00089E 2B                    5395 	.db #0x2b	; 43
      00089F 2B                    5396 	.db #0x2b	; 43
      0008A0 2B                    5397 	.db #0x2b	; 43
      0008A1 2B                    5398 	.db #0x2b	; 43
      0008A2 2B                    5399 	.db #0x2b	; 43
      0008A3 28                    5400 	.db #0x28	; 40
      0008A4 20                    5401 	.db #0x20	; 32
      0008A5 2B                    5402 	.db #0x2b	; 43
      0008A6 2B                    5403 	.db #0x2b	; 43
      0008A7 2B                    5404 	.db #0x2b	; 43
      0008A8 2B                    5405 	.db #0x2b	; 43
      0008A9 2B                    5406 	.db #0x2b	; 43
      0008AA 2B                    5407 	.db #0x2b	; 43
      0008AB 2B                    5408 	.db #0x2b	; 43
      0008AC 39                    5409 	.db #0x39	; 57	'9'
      0008AD 3A                    5410 	.db #0x3a	; 58
      0008AE 3B                    5411 	.db #0x3b	; 59
      0008AF 3C                    5412 	.db #0x3c	; 60
      0008B0 2B                    5413 	.db #0x2b	; 43
      0008B1 2B                    5414 	.db #0x2b	; 43
      0008B2 2B                    5415 	.db #0x2b	; 43
      0008B3 2B                    5416 	.db #0x2b	; 43
      0008B4 2B                    5417 	.db #0x2b	; 43
      0008B5 2B                    5418 	.db #0x2b	; 43
      0008B6 2B                    5419 	.db #0x2b	; 43
      0008B7 28                    5420 	.db #0x28	; 40
      0008B8 20                    5421 	.db #0x20	; 32
      0008B9 2B                    5422 	.db #0x2b	; 43
      0008BA 2B                    5423 	.db #0x2b	; 43
      0008BB 2B                    5424 	.db #0x2b	; 43
      0008BC 2B                    5425 	.db #0x2b	; 43
      0008BD 2B                    5426 	.db #0x2b	; 43
      0008BE 2B                    5427 	.db #0x2b	; 43
      0008BF 2B                    5428 	.db #0x2b	; 43
      0008C0 2B                    5429 	.db #0x2b	; 43
      0008C1 2B                    5430 	.db #0x2b	; 43
      0008C2 2B                    5431 	.db #0x2b	; 43
      0008C3 2B                    5432 	.db #0x2b	; 43
      0008C4 2B                    5433 	.db #0x2b	; 43
      0008C5 2B                    5434 	.db #0x2b	; 43
      0008C6 2B                    5435 	.db #0x2b	; 43
      0008C7 2B                    5436 	.db #0x2b	; 43
      0008C8 2B                    5437 	.db #0x2b	; 43
      0008C9 2B                    5438 	.db #0x2b	; 43
      0008CA 2B                    5439 	.db #0x2b	; 43
      0008CB 28                    5440 	.db #0x28	; 40
      0008CC 20                    5441 	.db #0x20	; 32
      0008CD 2B                    5442 	.db #0x2b	; 43
      0008CE 2B                    5443 	.db #0x2b	; 43
      0008CF 2B                    5444 	.db #0x2b	; 43
      0008D0 2B                    5445 	.db #0x2b	; 43
      0008D1 2B                    5446 	.db #0x2b	; 43
      0008D2 2B                    5447 	.db #0x2b	; 43
      0008D3 2B                    5448 	.db #0x2b	; 43
      0008D4 2B                    5449 	.db #0x2b	; 43
      0008D5 2B                    5450 	.db #0x2b	; 43
      0008D6 2B                    5451 	.db #0x2b	; 43
      0008D7 2B                    5452 	.db #0x2b	; 43
      0008D8 2B                    5453 	.db #0x2b	; 43
      0008D9 2B                    5454 	.db #0x2b	; 43
      0008DA 2B                    5455 	.db #0x2b	; 43
      0008DB 2B                    5456 	.db #0x2b	; 43
      0008DC 2B                    5457 	.db #0x2b	; 43
      0008DD 2B                    5458 	.db #0x2b	; 43
      0008DE 2B                    5459 	.db #0x2b	; 43
      0008DF 28                    5460 	.db #0x28	; 40
      0008E0 20                    5461 	.db #0x20	; 32
      0008E1 2B                    5462 	.db #0x2b	; 43
      0008E2 2B                    5463 	.db #0x2b	; 43
      0008E3 2B                    5464 	.db #0x2b	; 43
      0008E4 2B                    5465 	.db #0x2b	; 43
      0008E5 2B                    5466 	.db #0x2b	; 43
      0008E6 2B                    5467 	.db #0x2b	; 43
      0008E7 2B                    5468 	.db #0x2b	; 43
      0008E8 2B                    5469 	.db #0x2b	; 43
      0008E9 3D                    5470 	.db #0x3d	; 61
      0008EA 3E                    5471 	.db #0x3e	; 62
      0008EB 2B                    5472 	.db #0x2b	; 43
      0008EC 2B                    5473 	.db #0x2b	; 43
      0008ED 2B                    5474 	.db #0x2b	; 43
      0008EE 2B                    5475 	.db #0x2b	; 43
      0008EF 2B                    5476 	.db #0x2b	; 43
      0008F0 2B                    5477 	.db #0x2b	; 43
      0008F1 2B                    5478 	.db #0x2b	; 43
      0008F2 2B                    5479 	.db #0x2b	; 43
      0008F3 28                    5480 	.db #0x28	; 40
      0008F4 20                    5481 	.db #0x20	; 32
      0008F5 2B                    5482 	.db #0x2b	; 43
      0008F6 2B                    5483 	.db #0x2b	; 43
      0008F7 2B                    5484 	.db #0x2b	; 43
      0008F8 2B                    5485 	.db #0x2b	; 43
      0008F9 2B                    5486 	.db #0x2b	; 43
      0008FA 2B                    5487 	.db #0x2b	; 43
      0008FB 2B                    5488 	.db #0x2b	; 43
      0008FC 2B                    5489 	.db #0x2b	; 43
      0008FD 3F                    5490 	.db #0x3f	; 63
      0008FE 40                    5491 	.db #0x40	; 64
      0008FF 2B                    5492 	.db #0x2b	; 43
      000900 2B                    5493 	.db #0x2b	; 43
      000901 2B                    5494 	.db #0x2b	; 43
      000902 2B                    5495 	.db #0x2b	; 43
      000903 2B                    5496 	.db #0x2b	; 43
      000904 2B                    5497 	.db #0x2b	; 43
      000905 2B                    5498 	.db #0x2b	; 43
      000906 2B                    5499 	.db #0x2b	; 43
      000907 28                    5500 	.db #0x28	; 40
      000908 20                    5501 	.db #0x20	; 32
      000909 2B                    5502 	.db #0x2b	; 43
      00090A 2B                    5503 	.db #0x2b	; 43
      00090B 2B                    5504 	.db #0x2b	; 43
      00090C 2B                    5505 	.db #0x2b	; 43
      00090D 2B                    5506 	.db #0x2b	; 43
      00090E 2B                    5507 	.db #0x2b	; 43
      00090F 2B                    5508 	.db #0x2b	; 43
      000910 2B                    5509 	.db #0x2b	; 43
      000911 3F                    5510 	.db #0x3f	; 63
      000912 40                    5511 	.db #0x40	; 64
      000913 2B                    5512 	.db #0x2b	; 43
      000914 2B                    5513 	.db #0x2b	; 43
      000915 2B                    5514 	.db #0x2b	; 43
      000916 2B                    5515 	.db #0x2b	; 43
      000917 2B                    5516 	.db #0x2b	; 43
      000918 2B                    5517 	.db #0x2b	; 43
      000919 2B                    5518 	.db #0x2b	; 43
      00091A 2B                    5519 	.db #0x2b	; 43
      00091B 28                    5520 	.db #0x28	; 40
      00091C 1E                    5521 	.db #0x1e	; 30
      00091D 2F                    5522 	.db #0x2f	; 47
      00091E 2F                    5523 	.db #0x2f	; 47
      00091F 2F                    5524 	.db #0x2f	; 47
      000920 2F                    5525 	.db #0x2f	; 47
      000921 2F                    5526 	.db #0x2f	; 47
      000922 2F                    5527 	.db #0x2f	; 47
      000923 2F                    5528 	.db #0x2f	; 47
      000924 2F                    5529 	.db #0x2f	; 47
      000925 3F                    5530 	.db #0x3f	; 63
      000926 40                    5531 	.db #0x40	; 64
      000927 2F                    5532 	.db #0x2f	; 47
      000928 2F                    5533 	.db #0x2f	; 47
      000929 2F                    5534 	.db #0x2f	; 47
      00092A 2F                    5535 	.db #0x2f	; 47
      00092B 2F                    5536 	.db #0x2f	; 47
      00092C 2F                    5537 	.db #0x2f	; 47
      00092D 2F                    5538 	.db #0x2f	; 47
      00092E 2F                    5539 	.db #0x2f	; 47
      00092F 30                    5540 	.db #0x30	; 48	'0'
      000930 1B                    5541 	.db #0x1b	; 27
      000931 1C                    5542 	.db #0x1c	; 28
      000932 1C                    5543 	.db #0x1c	; 28
      000933 1C                    5544 	.db #0x1c	; 28
      000934 1C                    5545 	.db #0x1c	; 28
      000935 1C                    5546 	.db #0x1c	; 28
      000936 1C                    5547 	.db #0x1c	; 28
      000937 1C                    5548 	.db #0x1c	; 28
      000938 1C                    5549 	.db #0x1c	; 28
      000939 1C                    5550 	.db #0x1c	; 28
      00093A 1C                    5551 	.db #0x1c	; 28
      00093B 1C                    5552 	.db #0x1c	; 28
      00093C 1C                    5553 	.db #0x1c	; 28
      00093D 1C                    5554 	.db #0x1c	; 28
      00093E 1C                    5555 	.db #0x1c	; 28
      00093F 1C                    5556 	.db #0x1c	; 28
      000940 1C                    5557 	.db #0x1c	; 28
      000941 1C                    5558 	.db #0x1c	; 28
      000942 1C                    5559 	.db #0x1c	; 28
      000943 1D                    5560 	.db #0x1d	; 29
      000944 2E                    5561 	.db #0x2e	; 46
      000945 2E                    5562 	.db #0x2e	; 46
      000946 2E                    5563 	.db #0x2e	; 46
      000947 2E                    5564 	.db #0x2e	; 46
      000948 2E                    5565 	.db #0x2e	; 46
      000949 2E                    5566 	.db #0x2e	; 46
      00094A 2E                    5567 	.db #0x2e	; 46
      00094B 2E                    5568 	.db #0x2e	; 46
      00094C 2E                    5569 	.db #0x2e	; 46
      00094D 2E                    5570 	.db #0x2e	; 46
      00094E 2E                    5571 	.db #0x2e	; 46
      00094F 2E                    5572 	.db #0x2e	; 46
      000950 2E                    5573 	.db #0x2e	; 46
      000951 2E                    5574 	.db #0x2e	; 46
      000952 2E                    5575 	.db #0x2e	; 46
      000953 2E                    5576 	.db #0x2e	; 46
      000954 2E                    5577 	.db #0x2e	; 46
      000955 2E                    5578 	.db #0x2e	; 46
      000956 2E                    5579 	.db #0x2e	; 46
      000957 2E                    5580 	.db #0x2e	; 46
      000958                       5581 __xinit__MainCharacterFullMap:
      000958 00                    5582 	.db #0x00	; 0
      000959 01                    5583 	.db #0x01	; 1
      00095A 02                    5584 	.db #0x02	; 2
      00095B 03                    5585 	.db #0x03	; 3
      00095C 04                    5586 	.db #0x04	; 4
      00095D 05                    5587 	.db #0x05	; 5
      00095E 06                    5588 	.db #0x06	; 6
      00095F 07                    5589 	.db #0x07	; 7
      000960 08                    5590 	.db #0x08	; 8
      000961 09                    5591 	.db #0x09	; 9
      000962 0A                    5592 	.db #0x0a	; 10
      000963 0B                    5593 	.db #0x0b	; 11
      000964 0C                    5594 	.db #0x0c	; 12
      000965 0D                    5595 	.db #0x0d	; 13
      000966 0E                    5596 	.db #0x0e	; 14
      000967 0F                    5597 	.db #0x0f	; 15
      000968 10                    5598 	.db #0x10	; 16
      000969 11                    5599 	.db #0x11	; 17
      00096A 12                    5600 	.db #0x12	; 18
      00096B 13                    5601 	.db #0x13	; 19
      00096C 14                    5602 	.db #0x14	; 20
      00096D 15                    5603 	.db #0x15	; 21
      00096E 16                    5604 	.db #0x16	; 22
      00096F 17                    5605 	.db #0x17	; 23
      000970                       5606 __xinit__MainCharacterFull:
      000970 00                    5607 	.db #0x00	; 0
      000971 00                    5608 	.db #0x00	; 0
      000972 00                    5609 	.db #0x00	; 0
      000973 00                    5610 	.db #0x00	; 0
      000974 00                    5611 	.db #0x00	; 0
      000975 00                    5612 	.db #0x00	; 0
      000976 00                    5613 	.db #0x00	; 0
      000977 00                    5614 	.db #0x00	; 0
      000978 01                    5615 	.db #0x01	; 1
      000979 01                    5616 	.db #0x01	; 1
      00097A 01                    5617 	.db #0x01	; 1
      00097B 01                    5618 	.db #0x01	; 1
      00097C 01                    5619 	.db #0x01	; 1
      00097D 01                    5620 	.db #0x01	; 1
      00097E 01                    5621 	.db #0x01	; 1
      00097F 01                    5622 	.db #0x01	; 1
      000980 00                    5623 	.db #0x00	; 0
      000981 00                    5624 	.db #0x00	; 0
      000982 00                    5625 	.db #0x00	; 0
      000983 00                    5626 	.db #0x00	; 0
      000984 3F                    5627 	.db #0x3f	; 63
      000985 3F                    5628 	.db #0x3f	; 63
      000986 DA                    5629 	.db #0xda	; 218
      000987 E7                    5630 	.db #0xe7	; 231
      000988 A5                    5631 	.db #0xa5	; 165
      000989 7B                    5632 	.db #0x7b	; 123
      00098A 52                    5633 	.db #0x52	; 82	'R'
      00098B BD                    5634 	.db #0xbd	; 189
      00098C 2F                    5635 	.db #0x2f	; 47
      00098D DC                    5636 	.db #0xdc	; 220
      00098E 93                    5637 	.db #0x93	; 147
      00098F EF                    5638 	.db #0xef	; 239
      000990 00                    5639 	.db #0x00	; 0
      000991 00                    5640 	.db #0x00	; 0
      000992 00                    5641 	.db #0x00	; 0
      000993 00                    5642 	.db #0x00	; 0
      000994 E0                    5643 	.db #0xe0	; 224
      000995 E0                    5644 	.db #0xe0	; 224
      000996 D0                    5645 	.db #0xd0	; 208
      000997 30                    5646 	.db #0x30	; 48	'0'
      000998 68                    5647 	.db #0x68	; 104	'h'
      000999 98                    5648 	.db #0x98	; 152
      00099A D4                    5649 	.db #0xd4	; 212
      00099B EC                    5650 	.db #0xec	; 236
      00099C 4A                    5651 	.db #0x4a	; 74	'J'
      00099D F6                    5652 	.db #0xf6	; 246
      00099E BF                    5653 	.db #0xbf	; 191
      00099F FF                    5654 	.db #0xff	; 255
      0009A0 00                    5655 	.db #0x00	; 0
      0009A1 00                    5656 	.db #0x00	; 0
      0009A2 00                    5657 	.db #0x00	; 0
      0009A3 00                    5658 	.db #0x00	; 0
      0009A4 00                    5659 	.db #0x00	; 0
      0009A5 00                    5660 	.db #0x00	; 0
      0009A6 00                    5661 	.db #0x00	; 0
      0009A7 00                    5662 	.db #0x00	; 0
      0009A8 00                    5663 	.db #0x00	; 0
      0009A9 00                    5664 	.db #0x00	; 0
      0009AA 00                    5665 	.db #0x00	; 0
      0009AB 00                    5666 	.db #0x00	; 0
      0009AC 00                    5667 	.db #0x00	; 0
      0009AD 00                    5668 	.db #0x00	; 0
      0009AE 00                    5669 	.db #0x00	; 0
      0009AF 00                    5670 	.db #0x00	; 0
      0009B0 01                    5671 	.db #0x01	; 1
      0009B1 01                    5672 	.db #0x01	; 1
      0009B2 01                    5673 	.db #0x01	; 1
      0009B3 01                    5674 	.db #0x01	; 1
      0009B4 01                    5675 	.db #0x01	; 1
      0009B5 01                    5676 	.db #0x01	; 1
      0009B6 01                    5677 	.db #0x01	; 1
      0009B7 01                    5678 	.db #0x01	; 1
      0009B8 01                    5679 	.db #0x01	; 1
      0009B9 01                    5680 	.db #0x01	; 1
      0009BA 01                    5681 	.db #0x01	; 1
      0009BB 01                    5682 	.db #0x01	; 1
      0009BC 01                    5683 	.db #0x01	; 1
      0009BD 01                    5684 	.db #0x01	; 1
      0009BE 00                    5685 	.db #0x00	; 0
      0009BF 00                    5686 	.db #0x00	; 0
      0009C0 7C                    5687 	.db #0x7c	; 124
      0009C1 FF                    5688 	.db #0xff	; 255
      0009C2 80                    5689 	.db #0x80	; 128
      0009C3 FF                    5690 	.db #0xff	; 255
      0009C4 DE                    5691 	.db #0xde	; 222
      0009C5 FF                    5692 	.db #0xff	; 255
      0009C6 7F                    5693 	.db #0x7f	; 127
      0009C7 FF                    5694 	.db #0xff	; 255
      0009C8 BE                    5695 	.db #0xbe	; 190
      0009C9 7F                    5696 	.db #0x7f	; 127
      0009CA C1                    5697 	.db #0xc1	; 193
      0009CB 3E                    5698 	.db #0x3e	; 62
      0009CC FF                    5699 	.db #0xff	; 255
      0009CD 00                    5700 	.db #0x00	; 0
      0009CE FF                    5701 	.db #0xff	; 255
      0009CF 80                    5702 	.db #0x80	; 128
      0009D0 01                    5703 	.db #0x01	; 1
      0009D1 FF                    5704 	.db #0xff	; 255
      0009D2 03                    5705 	.db #0x03	; 3
      0009D3 FF                    5706 	.db #0xff	; 255
      0009D4 F7                    5707 	.db #0xf7	; 247
      0009D5 FF                    5708 	.db #0xff	; 255
      0009D6 FD                    5709 	.db #0xfd	; 253
      0009D7 FF                    5710 	.db #0xff	; 255
      0009D8 F1                    5711 	.db #0xf1	; 241
      0009D9 FF                    5712 	.db #0xff	; 255
      0009DA 87                    5713 	.db #0x87	; 135
      0009DB 79                    5714 	.db #0x79	; 121	'y'
      0009DC FF                    5715 	.db #0xff	; 255
      0009DD 01                    5716 	.db #0x01	; 1
      0009DE FE                    5717 	.db #0xfe	; 254
      0009DF 02                    5718 	.db #0x02	; 2
      0009E0 00                    5719 	.db #0x00	; 0
      0009E1 00                    5720 	.db #0x00	; 0
      0009E2 00                    5721 	.db #0x00	; 0
      0009E3 00                    5722 	.db #0x00	; 0
      0009E4 00                    5723 	.db #0x00	; 0
      0009E5 00                    5724 	.db #0x00	; 0
      0009E6 00                    5725 	.db #0x00	; 0
      0009E7 00                    5726 	.db #0x00	; 0
      0009E8 00                    5727 	.db #0x00	; 0
      0009E9 00                    5728 	.db #0x00	; 0
      0009EA 00                    5729 	.db #0x00	; 0
      0009EB 00                    5730 	.db #0x00	; 0
      0009EC 00                    5731 	.db #0x00	; 0
      0009ED 00                    5732 	.db #0x00	; 0
      0009EE 00                    5733 	.db #0x00	; 0
      0009EF 00                    5734 	.db #0x00	; 0
      0009F0 00                    5735 	.db #0x00	; 0
      0009F1 00                    5736 	.db #0x00	; 0
      0009F2 00                    5737 	.db #0x00	; 0
      0009F3 00                    5738 	.db #0x00	; 0
      0009F4 00                    5739 	.db #0x00	; 0
      0009F5 00                    5740 	.db #0x00	; 0
      0009F6 00                    5741 	.db #0x00	; 0
      0009F7 00                    5742 	.db #0x00	; 0
      0009F8 00                    5743 	.db #0x00	; 0
      0009F9 00                    5744 	.db #0x00	; 0
      0009FA 0F                    5745 	.db #0x0f	; 15
      0009FB 0F                    5746 	.db #0x0f	; 15
      0009FC 30                    5747 	.db #0x30	; 48	'0'
      0009FD 3F                    5748 	.db #0x3f	; 63
      0009FE 40                    5749 	.db #0x40	; 64
      0009FF 7F                    5750 	.db #0x7f	; 127
      000A00 7F                    5751 	.db #0x7f	; 127
      000A01 40                    5752 	.db #0x40	; 64
      000A02 3F                    5753 	.db #0x3f	; 63
      000A03 20                    5754 	.db #0x20	; 32
      000A04 3F                    5755 	.db #0x3f	; 63
      000A05 3F                    5756 	.db #0x3f	; 63
      000A06 20                    5757 	.db #0x20	; 32
      000A07 3F                    5758 	.db #0x3f	; 63
      000A08 3F                    5759 	.db #0x3f	; 63
      000A09 20                    5760 	.db #0x20	; 32
      000A0A CF                    5761 	.db #0xcf	; 207
      000A0B F0                    5762 	.db #0xf0	; 240
      000A0C 0F                    5763 	.db #0x0f	; 15
      000A0D F0                    5764 	.db #0xf0	; 240
      000A0E 0F                    5765 	.db #0x0f	; 15
      000A0F F0                    5766 	.db #0xf0	; 240
      000A10 FC                    5767 	.db #0xfc	; 252
      000A11 04                    5768 	.db #0x04	; 4
      000A12 F8                    5769 	.db #0xf8	; 248
      000A13 08                    5770 	.db #0x08	; 8
      000A14 F8                    5771 	.db #0xf8	; 248
      000A15 F8                    5772 	.db #0xf8	; 248
      000A16 08                    5773 	.db #0x08	; 8
      000A17 F8                    5774 	.db #0xf8	; 248
      000A18 F8                    5775 	.db #0xf8	; 248
      000A19 08                    5776 	.db #0x08	; 8
      000A1A E7                    5777 	.db #0xe7	; 231
      000A1B 1F                    5778 	.db #0x1f	; 31
      000A1C E0                    5779 	.db #0xe0	; 224
      000A1D 1F                    5780 	.db #0x1f	; 31
      000A1E E0                    5781 	.db #0xe0	; 224
      000A1F 1F                    5782 	.db #0x1f	; 31
      000A20 00                    5783 	.db #0x00	; 0
      000A21 00                    5784 	.db #0x00	; 0
      000A22 00                    5785 	.db #0x00	; 0
      000A23 00                    5786 	.db #0x00	; 0
      000A24 00                    5787 	.db #0x00	; 0
      000A25 00                    5788 	.db #0x00	; 0
      000A26 00                    5789 	.db #0x00	; 0
      000A27 00                    5790 	.db #0x00	; 0
      000A28 00                    5791 	.db #0x00	; 0
      000A29 00                    5792 	.db #0x00	; 0
      000A2A E0                    5793 	.db #0xe0	; 224
      000A2B E0                    5794 	.db #0xe0	; 224
      000A2C 18                    5795 	.db #0x18	; 24
      000A2D F8                    5796 	.db #0xf8	; 248
      000A2E 04                    5797 	.db #0x04	; 4
      000A2F FC                    5798 	.db #0xfc	; 252
      000A30 40                    5799 	.db #0x40	; 64
      000A31 7F                    5800 	.db #0x7f	; 127
      000A32 43                    5801 	.db #0x43	; 67	'C'
      000A33 7F                    5802 	.db #0x7f	; 127
      000A34 43                    5803 	.db #0x43	; 67	'C'
      000A35 7F                    5804 	.db #0x7f	; 127
      000A36 43                    5805 	.db #0x43	; 67	'C'
      000A37 7F                    5806 	.db #0x7f	; 127
      000A38 43                    5807 	.db #0x43	; 67	'C'
      000A39 7F                    5808 	.db #0x7f	; 127
      000A3A 43                    5809 	.db #0x43	; 67	'C'
      000A3B 7F                    5810 	.db #0x7f	; 127
      000A3C 43                    5811 	.db #0x43	; 67	'C'
      000A3D 7F                    5812 	.db #0x7f	; 127
      000A3E 43                    5813 	.db #0x43	; 67	'C'
      000A3F 7F                    5814 	.db #0x7f	; 127
      000A40 07                    5815 	.db #0x07	; 7
      000A41 F8                    5816 	.db #0xf8	; 248
      000A42 87                    5817 	.db #0x87	; 135
      000A43 F9                    5818 	.db #0xf9	; 249
      000A44 07                    5819 	.db #0x07	; 7
      000A45 F8                    5820 	.db #0xf8	; 248
      000A46 07                    5821 	.db #0x07	; 7
      000A47 F8                    5822 	.db #0xf8	; 248
      000A48 07                    5823 	.db #0x07	; 7
      000A49 F9                    5824 	.db #0xf9	; 249
      000A4A 07                    5825 	.db #0x07	; 7
      000A4B F8                    5826 	.db #0xf8	; 248
      000A4C 07                    5827 	.db #0x07	; 7
      000A4D F8                    5828 	.db #0xf8	; 248
      000A4E 07                    5829 	.db #0x07	; 7
      000A4F F9                    5830 	.db #0xf9	; 249
      000A50 C0                    5831 	.db #0xc0	; 192
      000A51 3F                    5832 	.db #0x3f	; 63
      000A52 DF                    5833 	.db #0xdf	; 223
      000A53 3F                    5834 	.db #0x3f	; 63
      000A54 E3                    5835 	.db #0xe3	; 227
      000A55 3F                    5836 	.db #0x3f	; 63
      000A56 D5                    5837 	.db #0xd5	; 213
      000A57 3F                    5838 	.db #0x3f	; 63
      000A58 C9                    5839 	.db #0xc9	; 201
      000A59 3F                    5840 	.db #0x3f	; 63
      000A5A C1                    5841 	.db #0xc1	; 193
      000A5B 3F                    5842 	.db #0x3f	; 63
      000A5C C1                    5843 	.db #0xc1	; 193
      000A5D 3F                    5844 	.db #0x3f	; 63
      000A5E C1                    5845 	.db #0xc1	; 193
      000A5F 3F                    5846 	.db #0x3f	; 63
      000A60 04                    5847 	.db #0x04	; 4
      000A61 FC                    5848 	.db #0xfc	; 252
      000A62 04                    5849 	.db #0x04	; 4
      000A63 FC                    5850 	.db #0xfc	; 252
      000A64 84                    5851 	.db #0x84	; 132
      000A65 FC                    5852 	.db #0xfc	; 252
      000A66 84                    5853 	.db #0x84	; 132
      000A67 FC                    5854 	.db #0xfc	; 252
      000A68 84                    5855 	.db #0x84	; 132
      000A69 FC                    5856 	.db #0xfc	; 252
      000A6A 84                    5857 	.db #0x84	; 132
      000A6B FC                    5858 	.db #0xfc	; 252
      000A6C 84                    5859 	.db #0x84	; 132
      000A6D FC                    5860 	.db #0xfc	; 252
      000A6E 84                    5861 	.db #0x84	; 132
      000A6F FC                    5862 	.db #0xfc	; 252
      000A70 43                    5863 	.db #0x43	; 67	'C'
      000A71 7F                    5864 	.db #0x7f	; 127
      000A72 43                    5865 	.db #0x43	; 67	'C'
      000A73 7F                    5866 	.db #0x7f	; 127
      000A74 43                    5867 	.db #0x43	; 67	'C'
      000A75 7F                    5868 	.db #0x7f	; 127
      000A76 43                    5869 	.db #0x43	; 67	'C'
      000A77 7F                    5870 	.db #0x7f	; 127
      000A78 43                    5871 	.db #0x43	; 67	'C'
      000A79 7F                    5872 	.db #0x7f	; 127
      000A7A 43                    5873 	.db #0x43	; 67	'C'
      000A7B 7F                    5874 	.db #0x7f	; 127
      000A7C 43                    5875 	.db #0x43	; 67	'C'
      000A7D 7F                    5876 	.db #0x7f	; 127
      000A7E 43                    5877 	.db #0x43	; 67	'C'
      000A7F 7F                    5878 	.db #0x7f	; 127
      000A80 07                    5879 	.db #0x07	; 7
      000A81 F8                    5880 	.db #0xf8	; 248
      000A82 07                    5881 	.db #0x07	; 7
      000A83 F8                    5882 	.db #0xf8	; 248
      000A84 07                    5883 	.db #0x07	; 7
      000A85 F9                    5884 	.db #0xf9	; 249
      000A86 07                    5885 	.db #0x07	; 7
      000A87 F8                    5886 	.db #0xf8	; 248
      000A88 07                    5887 	.db #0x07	; 7
      000A89 F8                    5888 	.db #0xf8	; 248
      000A8A 07                    5889 	.db #0x07	; 7
      000A8B F9                    5890 	.db #0xf9	; 249
      000A8C 07                    5891 	.db #0x07	; 7
      000A8D F8                    5892 	.db #0xf8	; 248
      000A8E 07                    5893 	.db #0x07	; 7
      000A8F F8                    5894 	.db #0xf8	; 248
      000A90 C1                    5895 	.db #0xc1	; 193
      000A91 3F                    5896 	.db #0x3f	; 63
      000A92 C1                    5897 	.db #0xc1	; 193
      000A93 3F                    5898 	.db #0x3f	; 63
      000A94 C1                    5899 	.db #0xc1	; 193
      000A95 3F                    5900 	.db #0x3f	; 63
      000A96 C1                    5901 	.db #0xc1	; 193
      000A97 3F                    5902 	.db #0x3f	; 63
      000A98 C1                    5903 	.db #0xc1	; 193
      000A99 3F                    5904 	.db #0x3f	; 63
      000A9A C1                    5905 	.db #0xc1	; 193
      000A9B 3F                    5906 	.db #0x3f	; 63
      000A9C C1                    5907 	.db #0xc1	; 193
      000A9D 3F                    5908 	.db #0x3f	; 63
      000A9E C1                    5909 	.db #0xc1	; 193
      000A9F 3F                    5910 	.db #0x3f	; 63
      000AA0 84                    5911 	.db #0x84	; 132
      000AA1 FC                    5912 	.db #0xfc	; 252
      000AA2 84                    5913 	.db #0x84	; 132
      000AA3 FC                    5914 	.db #0xfc	; 252
      000AA4 84                    5915 	.db #0x84	; 132
      000AA5 FC                    5916 	.db #0xfc	; 252
      000AA6 84                    5917 	.db #0x84	; 132
      000AA7 FC                    5918 	.db #0xfc	; 252
      000AA8 84                    5919 	.db #0x84	; 132
      000AA9 FC                    5920 	.db #0xfc	; 252
      000AAA 84                    5921 	.db #0x84	; 132
      000AAB FC                    5922 	.db #0xfc	; 252
      000AAC 84                    5923 	.db #0x84	; 132
      000AAD FC                    5924 	.db #0xfc	; 252
      000AAE 84                    5925 	.db #0x84	; 132
      000AAF FC                    5926 	.db #0xfc	; 252
      000AB0 43                    5927 	.db #0x43	; 67	'C'
      000AB1 7F                    5928 	.db #0x7f	; 127
      000AB2 7F                    5929 	.db #0x7f	; 127
      000AB3 7F                    5930 	.db #0x7f	; 127
      000AB4 7F                    5931 	.db #0x7f	; 127
      000AB5 5B                    5932 	.db #0x5b	; 91
      000AB6 7F                    5933 	.db #0x7f	; 127
      000AB7 43                    5934 	.db #0x43	; 67	'C'
      000AB8 3D                    5935 	.db #0x3d	; 61
      000AB9 25                    5936 	.db #0x25	; 37
      000ABA 19                    5937 	.db #0x19	; 25
      000ABB 19                    5938 	.db #0x19	; 25
      000ABC 01                    5939 	.db #0x01	; 1
      000ABD 01                    5940 	.db #0x01	; 1
      000ABE 01                    5941 	.db #0x01	; 1
      000ABF 01                    5942 	.db #0x01	; 1
      000AC0 07                    5943 	.db #0x07	; 7
      000AC1 F9                    5944 	.db #0xf9	; 249
      000AC2 FF                    5945 	.db #0xff	; 255
      000AC3 FF                    5946 	.db #0xff	; 255
      000AC4 00                    5947 	.db #0x00	; 0
      000AC5 FF                    5948 	.db #0xff	; 255
      000AC6 00                    5949 	.db #0x00	; 0
      000AC7 FF                    5950 	.db #0xff	; 255
      000AC8 01                    5951 	.db #0x01	; 1
      000AC9 FF                    5952 	.db #0xff	; 255
      000ACA 01                    5953 	.db #0x01	; 1
      000ACB FF                    5954 	.db #0xff	; 255
      000ACC 01                    5955 	.db #0x01	; 1
      000ACD FF                    5956 	.db #0xff	; 255
      000ACE 01                    5957 	.db #0x01	; 1
      000ACF FF                    5958 	.db #0xff	; 255
      000AD0 C1                    5959 	.db #0xc1	; 193
      000AD1 3F                    5960 	.db #0x3f	; 63
      000AD2 FF                    5961 	.db #0xff	; 255
      000AD3 FF                    5962 	.db #0xff	; 255
      000AD4 01                    5963 	.db #0x01	; 1
      000AD5 FF                    5964 	.db #0xff	; 255
      000AD6 01                    5965 	.db #0x01	; 1
      000AD7 FF                    5966 	.db #0xff	; 255
      000AD8 01                    5967 	.db #0x01	; 1
      000AD9 FF                    5968 	.db #0xff	; 255
      000ADA 01                    5969 	.db #0x01	; 1
      000ADB FF                    5970 	.db #0xff	; 255
      000ADC 01                    5971 	.db #0x01	; 1
      000ADD FF                    5972 	.db #0xff	; 255
      000ADE 01                    5973 	.db #0x01	; 1
      000ADF FF                    5974 	.db #0xff	; 255
      000AE0 84                    5975 	.db #0x84	; 132
      000AE1 FC                    5976 	.db #0xfc	; 252
      000AE2 FC                    5977 	.db #0xfc	; 252
      000AE3 FC                    5978 	.db #0xfc	; 252
      000AE4 FC                    5979 	.db #0xfc	; 252
      000AE5 84                    5980 	.db #0x84	; 132
      000AE6 FC                    5981 	.db #0xfc	; 252
      000AE7 84                    5982 	.db #0x84	; 132
      000AE8 78                    5983 	.db #0x78	; 120	'x'
      000AE9 48                    5984 	.db #0x48	; 72	'H'
      000AEA 30                    5985 	.db #0x30	; 48	'0'
      000AEB 30                    5986 	.db #0x30	; 48	'0'
      000AEC 00                    5987 	.db #0x00	; 0
      000AED 00                    5988 	.db #0x00	; 0
      000AEE 00                    5989 	.db #0x00	; 0
      000AEF 00                    5990 	.db #0x00	; 0
      000AF0 00                    5991 	.db #0x00	; 0
      000AF1 00                    5992 	.db #0x00	; 0
      000AF2 00                    5993 	.db #0x00	; 0
      000AF3 00                    5994 	.db #0x00	; 0
      000AF4 00                    5995 	.db #0x00	; 0
      000AF5 00                    5996 	.db #0x00	; 0
      000AF6 00                    5997 	.db #0x00	; 0
      000AF7 00                    5998 	.db #0x00	; 0
      000AF8 00                    5999 	.db #0x00	; 0
      000AF9 00                    6000 	.db #0x00	; 0
      000AFA 00                    6001 	.db #0x00	; 0
      000AFB 00                    6002 	.db #0x00	; 0
      000AFC 00                    6003 	.db #0x00	; 0
      000AFD 00                    6004 	.db #0x00	; 0
      000AFE 00                    6005 	.db #0x00	; 0
      000AFF 00                    6006 	.db #0x00	; 0
      000B00                       6007 __xinit__Alphabet:
      000B00 1C                    6008 	.db #0x1c	; 28
      000B01 1C                    6009 	.db #0x1c	; 28
      000B02 22                    6010 	.db #0x22	; 34
      000B03 22                    6011 	.db #0x22	; 34
      000B04 41                    6012 	.db #0x41	; 65	'A'
      000B05 41                    6013 	.db #0x41	; 65	'A'
      000B06 41                    6014 	.db #0x41	; 65	'A'
      000B07 41                    6015 	.db #0x41	; 65	'A'
      000B08 7F                    6016 	.db #0x7f	; 127
      000B09 7F                    6017 	.db #0x7f	; 127
      000B0A 41                    6018 	.db #0x41	; 65	'A'
      000B0B 41                    6019 	.db #0x41	; 65	'A'
      000B0C 41                    6020 	.db #0x41	; 65	'A'
      000B0D 41                    6021 	.db #0x41	; 65	'A'
      000B0E 41                    6022 	.db #0x41	; 65	'A'
      000B0F 41                    6023 	.db #0x41	; 65	'A'
      000B10 7E                    6024 	.db #0x7e	; 126
      000B11 7E                    6025 	.db #0x7e	; 126
      000B12 41                    6026 	.db #0x41	; 65	'A'
      000B13 41                    6027 	.db #0x41	; 65	'A'
      000B14 41                    6028 	.db #0x41	; 65	'A'
      000B15 41                    6029 	.db #0x41	; 65	'A'
      000B16 7E                    6030 	.db #0x7e	; 126
      000B17 7E                    6031 	.db #0x7e	; 126
      000B18 41                    6032 	.db #0x41	; 65	'A'
      000B19 41                    6033 	.db #0x41	; 65	'A'
      000B1A 41                    6034 	.db #0x41	; 65	'A'
      000B1B 41                    6035 	.db #0x41	; 65	'A'
      000B1C 41                    6036 	.db #0x41	; 65	'A'
      000B1D 41                    6037 	.db #0x41	; 65	'A'
      000B1E 7E                    6038 	.db #0x7e	; 126
      000B1F 7E                    6039 	.db #0x7e	; 126
      000B20 3E                    6040 	.db #0x3e	; 62
      000B21 3E                    6041 	.db #0x3e	; 62
      000B22 40                    6042 	.db #0x40	; 64
      000B23 40                    6043 	.db #0x40	; 64
      000B24 40                    6044 	.db #0x40	; 64
      000B25 40                    6045 	.db #0x40	; 64
      000B26 40                    6046 	.db #0x40	; 64
      000B27 40                    6047 	.db #0x40	; 64
      000B28 40                    6048 	.db #0x40	; 64
      000B29 40                    6049 	.db #0x40	; 64
      000B2A 40                    6050 	.db #0x40	; 64
      000B2B 40                    6051 	.db #0x40	; 64
      000B2C 40                    6052 	.db #0x40	; 64
      000B2D 40                    6053 	.db #0x40	; 64
      000B2E 3E                    6054 	.db #0x3e	; 62
      000B2F 3E                    6055 	.db #0x3e	; 62
      000B30 7C                    6056 	.db #0x7c	; 124
      000B31 7C                    6057 	.db #0x7c	; 124
      000B32 42                    6058 	.db #0x42	; 66	'B'
      000B33 42                    6059 	.db #0x42	; 66	'B'
      000B34 41                    6060 	.db #0x41	; 65	'A'
      000B35 41                    6061 	.db #0x41	; 65	'A'
      000B36 41                    6062 	.db #0x41	; 65	'A'
      000B37 41                    6063 	.db #0x41	; 65	'A'
      000B38 41                    6064 	.db #0x41	; 65	'A'
      000B39 41                    6065 	.db #0x41	; 65	'A'
      000B3A 41                    6066 	.db #0x41	; 65	'A'
      000B3B 41                    6067 	.db #0x41	; 65	'A'
      000B3C 42                    6068 	.db #0x42	; 66	'B'
      000B3D 42                    6069 	.db #0x42	; 66	'B'
      000B3E 7C                    6070 	.db #0x7c	; 124
      000B3F 7C                    6071 	.db #0x7c	; 124
      000B40 7E                    6072 	.db #0x7e	; 126
      000B41 7E                    6073 	.db #0x7e	; 126
      000B42 40                    6074 	.db #0x40	; 64
      000B43 40                    6075 	.db #0x40	; 64
      000B44 40                    6076 	.db #0x40	; 64
      000B45 40                    6077 	.db #0x40	; 64
      000B46 7C                    6078 	.db #0x7c	; 124
      000B47 7C                    6079 	.db #0x7c	; 124
      000B48 40                    6080 	.db #0x40	; 64
      000B49 40                    6081 	.db #0x40	; 64
      000B4A 40                    6082 	.db #0x40	; 64
      000B4B 40                    6083 	.db #0x40	; 64
      000B4C 40                    6084 	.db #0x40	; 64
      000B4D 40                    6085 	.db #0x40	; 64
      000B4E 7E                    6086 	.db #0x7e	; 126
      000B4F 7E                    6087 	.db #0x7e	; 126
      000B50 7E                    6088 	.db #0x7e	; 126
      000B51 7E                    6089 	.db #0x7e	; 126
      000B52 40                    6090 	.db #0x40	; 64
      000B53 40                    6091 	.db #0x40	; 64
      000B54 40                    6092 	.db #0x40	; 64
      000B55 40                    6093 	.db #0x40	; 64
      000B56 78                    6094 	.db #0x78	; 120	'x'
      000B57 78                    6095 	.db #0x78	; 120	'x'
      000B58 40                    6096 	.db #0x40	; 64
      000B59 40                    6097 	.db #0x40	; 64
      000B5A 40                    6098 	.db #0x40	; 64
      000B5B 40                    6099 	.db #0x40	; 64
      000B5C 40                    6100 	.db #0x40	; 64
      000B5D 40                    6101 	.db #0x40	; 64
      000B5E 40                    6102 	.db #0x40	; 64
      000B5F 40                    6103 	.db #0x40	; 64
      000B60 3C                    6104 	.db #0x3c	; 60
      000B61 3C                    6105 	.db #0x3c	; 60
      000B62 42                    6106 	.db #0x42	; 66	'B'
      000B63 42                    6107 	.db #0x42	; 66	'B'
      000B64 40                    6108 	.db #0x40	; 64
      000B65 40                    6109 	.db #0x40	; 64
      000B66 40                    6110 	.db #0x40	; 64
      000B67 40                    6111 	.db #0x40	; 64
      000B68 5C                    6112 	.db #0x5c	; 92
      000B69 5C                    6113 	.db #0x5c	; 92
      000B6A 42                    6114 	.db #0x42	; 66	'B'
      000B6B 42                    6115 	.db #0x42	; 66	'B'
      000B6C 42                    6116 	.db #0x42	; 66	'B'
      000B6D 42                    6117 	.db #0x42	; 66	'B'
      000B6E 3C                    6118 	.db #0x3c	; 60
      000B6F 3C                    6119 	.db #0x3c	; 60
      000B70 41                    6120 	.db #0x41	; 65	'A'
      000B71 41                    6121 	.db #0x41	; 65	'A'
      000B72 41                    6122 	.db #0x41	; 65	'A'
      000B73 41                    6123 	.db #0x41	; 65	'A'
      000B74 41                    6124 	.db #0x41	; 65	'A'
      000B75 41                    6125 	.db #0x41	; 65	'A'
      000B76 7F                    6126 	.db #0x7f	; 127
      000B77 7F                    6127 	.db #0x7f	; 127
      000B78 41                    6128 	.db #0x41	; 65	'A'
      000B79 41                    6129 	.db #0x41	; 65	'A'
      000B7A 41                    6130 	.db #0x41	; 65	'A'
      000B7B 41                    6131 	.db #0x41	; 65	'A'
      000B7C 41                    6132 	.db #0x41	; 65	'A'
      000B7D 41                    6133 	.db #0x41	; 65	'A'
      000B7E 41                    6134 	.db #0x41	; 65	'A'
      000B7F 41                    6135 	.db #0x41	; 65	'A'
      000B80 FE                    6136 	.db #0xfe	; 254
      000B81 FE                    6137 	.db #0xfe	; 254
      000B82 10                    6138 	.db #0x10	; 16
      000B83 10                    6139 	.db #0x10	; 16
      000B84 10                    6140 	.db #0x10	; 16
      000B85 10                    6141 	.db #0x10	; 16
      000B86 10                    6142 	.db #0x10	; 16
      000B87 10                    6143 	.db #0x10	; 16
      000B88 10                    6144 	.db #0x10	; 16
      000B89 10                    6145 	.db #0x10	; 16
      000B8A 10                    6146 	.db #0x10	; 16
      000B8B 10                    6147 	.db #0x10	; 16
      000B8C 10                    6148 	.db #0x10	; 16
      000B8D 10                    6149 	.db #0x10	; 16
      000B8E FE                    6150 	.db #0xfe	; 254
      000B8F FE                    6151 	.db #0xfe	; 254
      000B90 FE                    6152 	.db #0xfe	; 254
      000B91 FE                    6153 	.db #0xfe	; 254
      000B92 10                    6154 	.db #0x10	; 16
      000B93 10                    6155 	.db #0x10	; 16
      000B94 10                    6156 	.db #0x10	; 16
      000B95 10                    6157 	.db #0x10	; 16
      000B96 10                    6158 	.db #0x10	; 16
      000B97 10                    6159 	.db #0x10	; 16
      000B98 10                    6160 	.db #0x10	; 16
      000B99 10                    6161 	.db #0x10	; 16
      000B9A 90                    6162 	.db #0x90	; 144
      000B9B 90                    6163 	.db #0x90	; 144
      000B9C 90                    6164 	.db #0x90	; 144
      000B9D 90                    6165 	.db #0x90	; 144
      000B9E 60                    6166 	.db #0x60	; 96
      000B9F 60                    6167 	.db #0x60	; 96
      000BA0 44                    6168 	.db #0x44	; 68	'D'
      000BA1 44                    6169 	.db #0x44	; 68	'D'
      000BA2 48                    6170 	.db #0x48	; 72	'H'
      000BA3 48                    6171 	.db #0x48	; 72	'H'
      000BA4 50                    6172 	.db #0x50	; 80	'P'
      000BA5 50                    6173 	.db #0x50	; 80	'P'
      000BA6 60                    6174 	.db #0x60	; 96
      000BA7 60                    6175 	.db #0x60	; 96
      000BA8 60                    6176 	.db #0x60	; 96
      000BA9 60                    6177 	.db #0x60	; 96
      000BAA 50                    6178 	.db #0x50	; 80	'P'
      000BAB 50                    6179 	.db #0x50	; 80	'P'
      000BAC 48                    6180 	.db #0x48	; 72	'H'
      000BAD 48                    6181 	.db #0x48	; 72	'H'
      000BAE 44                    6182 	.db #0x44	; 68	'D'
      000BAF 44                    6183 	.db #0x44	; 68	'D'
      000BB0 40                    6184 	.db #0x40	; 64
      000BB1 40                    6185 	.db #0x40	; 64
      000BB2 40                    6186 	.db #0x40	; 64
      000BB3 40                    6187 	.db #0x40	; 64
      000BB4 40                    6188 	.db #0x40	; 64
      000BB5 40                    6189 	.db #0x40	; 64
      000BB6 40                    6190 	.db #0x40	; 64
      000BB7 40                    6191 	.db #0x40	; 64
      000BB8 40                    6192 	.db #0x40	; 64
      000BB9 40                    6193 	.db #0x40	; 64
      000BBA 40                    6194 	.db #0x40	; 64
      000BBB 40                    6195 	.db #0x40	; 64
      000BBC 40                    6196 	.db #0x40	; 64
      000BBD 40                    6197 	.db #0x40	; 64
      000BBE 7E                    6198 	.db #0x7e	; 126
      000BBF 7E                    6199 	.db #0x7e	; 126
      000BC0 6C                    6200 	.db #0x6c	; 108	'l'
      000BC1 6C                    6201 	.db #0x6c	; 108	'l'
      000BC2 92                    6202 	.db #0x92	; 146
      000BC3 92                    6203 	.db #0x92	; 146
      000BC4 92                    6204 	.db #0x92	; 146
      000BC5 92                    6205 	.db #0x92	; 146
      000BC6 92                    6206 	.db #0x92	; 146
      000BC7 92                    6207 	.db #0x92	; 146
      000BC8 92                    6208 	.db #0x92	; 146
      000BC9 92                    6209 	.db #0x92	; 146
      000BCA 92                    6210 	.db #0x92	; 146
      000BCB 92                    6211 	.db #0x92	; 146
      000BCC 92                    6212 	.db #0x92	; 146
      000BCD 92                    6213 	.db #0x92	; 146
      000BCE 92                    6214 	.db #0x92	; 146
      000BCF 92                    6215 	.db #0x92	; 146
      000BD0 00                    6216 	.db #0x00	; 0
      000BD1 00                    6217 	.db #0x00	; 0
      000BD2 82                    6218 	.db #0x82	; 130
      000BD3 82                    6219 	.db #0x82	; 130
      000BD4 C2                    6220 	.db #0xc2	; 194
      000BD5 C2                    6221 	.db #0xc2	; 194
      000BD6 A2                    6222 	.db #0xa2	; 162
      000BD7 A2                    6223 	.db #0xa2	; 162
      000BD8 92                    6224 	.db #0x92	; 146
      000BD9 92                    6225 	.db #0x92	; 146
      000BDA 8A                    6226 	.db #0x8a	; 138
      000BDB 8A                    6227 	.db #0x8a	; 138
      000BDC 86                    6228 	.db #0x86	; 134
      000BDD 86                    6229 	.db #0x86	; 134
      000BDE 82                    6230 	.db #0x82	; 130
      000BDF 82                    6231 	.db #0x82	; 130
      000BE0 78                    6232 	.db #0x78	; 120	'x'
      000BE1 78                    6233 	.db #0x78	; 120	'x'
      000BE2 84                    6234 	.db #0x84	; 132
      000BE3 84                    6235 	.db #0x84	; 132
      000BE4 84                    6236 	.db #0x84	; 132
      000BE5 84                    6237 	.db #0x84	; 132
      000BE6 84                    6238 	.db #0x84	; 132
      000BE7 84                    6239 	.db #0x84	; 132
      000BE8 84                    6240 	.db #0x84	; 132
      000BE9 84                    6241 	.db #0x84	; 132
      000BEA 84                    6242 	.db #0x84	; 132
      000BEB 84                    6243 	.db #0x84	; 132
      000BEC 84                    6244 	.db #0x84	; 132
      000BED 84                    6245 	.db #0x84	; 132
      000BEE 78                    6246 	.db #0x78	; 120	'x'
      000BEF 78                    6247 	.db #0x78	; 120	'x'
      000BF0 7C                    6248 	.db #0x7c	; 124
      000BF1 7C                    6249 	.db #0x7c	; 124
      000BF2 42                    6250 	.db #0x42	; 66	'B'
      000BF3 42                    6251 	.db #0x42	; 66	'B'
      000BF4 42                    6252 	.db #0x42	; 66	'B'
      000BF5 42                    6253 	.db #0x42	; 66	'B'
      000BF6 7C                    6254 	.db #0x7c	; 124
      000BF7 7C                    6255 	.db #0x7c	; 124
      000BF8 40                    6256 	.db #0x40	; 64
      000BF9 40                    6257 	.db #0x40	; 64
      000BFA 40                    6258 	.db #0x40	; 64
      000BFB 40                    6259 	.db #0x40	; 64
      000BFC 40                    6260 	.db #0x40	; 64
      000BFD 40                    6261 	.db #0x40	; 64
      000BFE 40                    6262 	.db #0x40	; 64
      000BFF 40                    6263 	.db #0x40	; 64
      000C00 3C                    6264 	.db #0x3c	; 60
      000C01 3C                    6265 	.db #0x3c	; 60
      000C02 42                    6266 	.db #0x42	; 66	'B'
      000C03 42                    6267 	.db #0x42	; 66	'B'
      000C04 42                    6268 	.db #0x42	; 66	'B'
      000C05 42                    6269 	.db #0x42	; 66	'B'
      000C06 42                    6270 	.db #0x42	; 66	'B'
      000C07 42                    6271 	.db #0x42	; 66	'B'
      000C08 4A                    6272 	.db #0x4a	; 74	'J'
      000C09 4A                    6273 	.db #0x4a	; 74	'J'
      000C0A 46                    6274 	.db #0x46	; 70	'F'
      000C0B 46                    6275 	.db #0x46	; 70	'F'
      000C0C 3E                    6276 	.db #0x3e	; 62
      000C0D 3E                    6277 	.db #0x3e	; 62
      000C0E 01                    6278 	.db #0x01	; 1
      000C0F 01                    6279 	.db #0x01	; 1
      000C10 7C                    6280 	.db #0x7c	; 124
      000C11 7C                    6281 	.db #0x7c	; 124
      000C12 42                    6282 	.db #0x42	; 66	'B'
      000C13 42                    6283 	.db #0x42	; 66	'B'
      000C14 42                    6284 	.db #0x42	; 66	'B'
      000C15 42                    6285 	.db #0x42	; 66	'B'
      000C16 7C                    6286 	.db #0x7c	; 124
      000C17 7C                    6287 	.db #0x7c	; 124
      000C18 50                    6288 	.db #0x50	; 80	'P'
      000C19 50                    6289 	.db #0x50	; 80	'P'
      000C1A 48                    6290 	.db #0x48	; 72	'H'
      000C1B 48                    6291 	.db #0x48	; 72	'H'
      000C1C 44                    6292 	.db #0x44	; 68	'D'
      000C1D 44                    6293 	.db #0x44	; 68	'D'
      000C1E 42                    6294 	.db #0x42	; 66	'B'
      000C1F 42                    6295 	.db #0x42	; 66	'B'
      000C20 3E                    6296 	.db #0x3e	; 62
      000C21 3E                    6297 	.db #0x3e	; 62
      000C22 40                    6298 	.db #0x40	; 64
      000C23 40                    6299 	.db #0x40	; 64
      000C24 40                    6300 	.db #0x40	; 64
      000C25 40                    6301 	.db #0x40	; 64
      000C26 3C                    6302 	.db #0x3c	; 60
      000C27 3C                    6303 	.db #0x3c	; 60
      000C28 02                    6304 	.db #0x02	; 2
      000C29 02                    6305 	.db #0x02	; 2
      000C2A 02                    6306 	.db #0x02	; 2
      000C2B 02                    6307 	.db #0x02	; 2
      000C2C 02                    6308 	.db #0x02	; 2
      000C2D 02                    6309 	.db #0x02	; 2
      000C2E 7C                    6310 	.db #0x7c	; 124
      000C2F 7C                    6311 	.db #0x7c	; 124
      000C30 FE                    6312 	.db #0xfe	; 254
      000C31 FE                    6313 	.db #0xfe	; 254
      000C32 10                    6314 	.db #0x10	; 16
      000C33 10                    6315 	.db #0x10	; 16
      000C34 10                    6316 	.db #0x10	; 16
      000C35 10                    6317 	.db #0x10	; 16
      000C36 10                    6318 	.db #0x10	; 16
      000C37 10                    6319 	.db #0x10	; 16
      000C38 10                    6320 	.db #0x10	; 16
      000C39 10                    6321 	.db #0x10	; 16
      000C3A 10                    6322 	.db #0x10	; 16
      000C3B 10                    6323 	.db #0x10	; 16
      000C3C 10                    6324 	.db #0x10	; 16
      000C3D 10                    6325 	.db #0x10	; 16
      000C3E 10                    6326 	.db #0x10	; 16
      000C3F 10                    6327 	.db #0x10	; 16
      000C40 42                    6328 	.db #0x42	; 66	'B'
      000C41 42                    6329 	.db #0x42	; 66	'B'
      000C42 42                    6330 	.db #0x42	; 66	'B'
      000C43 42                    6331 	.db #0x42	; 66	'B'
      000C44 42                    6332 	.db #0x42	; 66	'B'
      000C45 42                    6333 	.db #0x42	; 66	'B'
      000C46 42                    6334 	.db #0x42	; 66	'B'
      000C47 42                    6335 	.db #0x42	; 66	'B'
      000C48 42                    6336 	.db #0x42	; 66	'B'
      000C49 42                    6337 	.db #0x42	; 66	'B'
      000C4A 42                    6338 	.db #0x42	; 66	'B'
      000C4B 42                    6339 	.db #0x42	; 66	'B'
      000C4C 42                    6340 	.db #0x42	; 66	'B'
      000C4D 42                    6341 	.db #0x42	; 66	'B'
      000C4E 3C                    6342 	.db #0x3c	; 60
      000C4F 3C                    6343 	.db #0x3c	; 60
      000C50 41                    6344 	.db #0x41	; 65	'A'
      000C51 41                    6345 	.db #0x41	; 65	'A'
      000C52 41                    6346 	.db #0x41	; 65	'A'
      000C53 41                    6347 	.db #0x41	; 65	'A'
      000C54 41                    6348 	.db #0x41	; 65	'A'
      000C55 41                    6349 	.db #0x41	; 65	'A'
      000C56 41                    6350 	.db #0x41	; 65	'A'
      000C57 41                    6351 	.db #0x41	; 65	'A'
      000C58 41                    6352 	.db #0x41	; 65	'A'
      000C59 41                    6353 	.db #0x41	; 65	'A'
      000C5A 22                    6354 	.db #0x22	; 34
      000C5B 22                    6355 	.db #0x22	; 34
      000C5C 14                    6356 	.db #0x14	; 20
      000C5D 14                    6357 	.db #0x14	; 20
      000C5E 08                    6358 	.db #0x08	; 8
      000C5F 08                    6359 	.db #0x08	; 8
      000C60 49                    6360 	.db #0x49	; 73	'I'
      000C61 49                    6361 	.db #0x49	; 73	'I'
      000C62 49                    6362 	.db #0x49	; 73	'I'
      000C63 49                    6363 	.db #0x49	; 73	'I'
      000C64 49                    6364 	.db #0x49	; 73	'I'
      000C65 49                    6365 	.db #0x49	; 73	'I'
      000C66 49                    6366 	.db #0x49	; 73	'I'
      000C67 49                    6367 	.db #0x49	; 73	'I'
      000C68 49                    6368 	.db #0x49	; 73	'I'
      000C69 49                    6369 	.db #0x49	; 73	'I'
      000C6A 49                    6370 	.db #0x49	; 73	'I'
      000C6B 49                    6371 	.db #0x49	; 73	'I'
      000C6C 36                    6372 	.db #0x36	; 54	'6'
      000C6D 36                    6373 	.db #0x36	; 54	'6'
      000C6E 00                    6374 	.db #0x00	; 0
      000C6F 00                    6375 	.db #0x00	; 0
      000C70 81                    6376 	.db #0x81	; 129
      000C71 81                    6377 	.db #0x81	; 129
      000C72 42                    6378 	.db #0x42	; 66	'B'
      000C73 42                    6379 	.db #0x42	; 66	'B'
      000C74 24                    6380 	.db #0x24	; 36
      000C75 24                    6381 	.db #0x24	; 36
      000C76 18                    6382 	.db #0x18	; 24
      000C77 18                    6383 	.db #0x18	; 24
      000C78 18                    6384 	.db #0x18	; 24
      000C79 18                    6385 	.db #0x18	; 24
      000C7A 24                    6386 	.db #0x24	; 36
      000C7B 24                    6387 	.db #0x24	; 36
      000C7C 42                    6388 	.db #0x42	; 66	'B'
      000C7D 42                    6389 	.db #0x42	; 66	'B'
      000C7E 81                    6390 	.db #0x81	; 129
      000C7F 81                    6391 	.db #0x81	; 129
      000C80 82                    6392 	.db #0x82	; 130
      000C81 82                    6393 	.db #0x82	; 130
      000C82 82                    6394 	.db #0x82	; 130
      000C83 82                    6395 	.db #0x82	; 130
      000C84 44                    6396 	.db #0x44	; 68	'D'
      000C85 44                    6397 	.db #0x44	; 68	'D'
      000C86 28                    6398 	.db #0x28	; 40
      000C87 28                    6399 	.db #0x28	; 40
      000C88 10                    6400 	.db #0x10	; 16
      000C89 10                    6401 	.db #0x10	; 16
      000C8A 10                    6402 	.db #0x10	; 16
      000C8B 10                    6403 	.db #0x10	; 16
      000C8C 10                    6404 	.db #0x10	; 16
      000C8D 10                    6405 	.db #0x10	; 16
      000C8E 10                    6406 	.db #0x10	; 16
      000C8F 10                    6407 	.db #0x10	; 16
      000C90 7E                    6408 	.db #0x7e	; 126
      000C91 7E                    6409 	.db #0x7e	; 126
      000C92 02                    6410 	.db #0x02	; 2
      000C93 02                    6411 	.db #0x02	; 2
      000C94 04                    6412 	.db #0x04	; 4
      000C95 04                    6413 	.db #0x04	; 4
      000C96 08                    6414 	.db #0x08	; 8
      000C97 08                    6415 	.db #0x08	; 8
      000C98 10                    6416 	.db #0x10	; 16
      000C99 10                    6417 	.db #0x10	; 16
      000C9A 20                    6418 	.db #0x20	; 32
      000C9B 20                    6419 	.db #0x20	; 32
      000C9C 40                    6420 	.db #0x40	; 64
      000C9D 40                    6421 	.db #0x40	; 64
      000C9E 7E                    6422 	.db #0x7e	; 126
      000C9F 7E                    6423 	.db #0x7e	; 126
      000CA0 00                    6424 	.db #0x00	; 0
      000CA1 00                    6425 	.db #0x00	; 0
      000CA2 38                    6426 	.db #0x38	; 56	'8'
      000CA3 38                    6427 	.db #0x38	; 56	'8'
      000CA4 38                    6428 	.db #0x38	; 56	'8'
      000CA5 28                    6429 	.db #0x28	; 40
      000CA6 EE                    6430 	.db #0xee	; 238
      000CA7 FE                    6431 	.db #0xfe	; 254
      000CA8 C6                    6432 	.db #0xc6	; 198
      000CA9 BA                    6433 	.db #0xba	; 186
      000CAA EE                    6434 	.db #0xee	; 238
      000CAB FE                    6435 	.db #0xfe	; 254
      000CAC 38                    6436 	.db #0x38	; 56	'8'
      000CAD 28                    6437 	.db #0x28	; 40
      000CAE 38                    6438 	.db #0x38	; 56	'8'
      000CAF 38                    6439 	.db #0x38	; 56	'8'
      000CB0                       6440 __xinit__PressStartMap:
      000CB0 0F                    6441 	.db #0x0f	; 15
      000CB1 11                    6442 	.db #0x11	; 17
      000CB2 04                    6443 	.db #0x04	; 4
      000CB3 12                    6444 	.db #0x12	; 18
      000CB4 12                    6445 	.db #0x12	; 18
      000CB5 7F                    6446 	.db #0x7f	; 127
      000CB6 12                    6447 	.db #0x12	; 18
      000CB7 13                    6448 	.db #0x13	; 19
      000CB8 00                    6449 	.db #0x00	; 0
      000CB9 11                    6450 	.db #0x11	; 17
      000CBA 13                    6451 	.db #0x13	; 19
      000CBB                       6452 __xinit__EmptyMap:
      000CBB 7F                    6453 	.db #0x7f	; 127
      000CBC 7F                    6454 	.db #0x7f	; 127
      000CBD 7F                    6455 	.db #0x7f	; 127
      000CBE 7F                    6456 	.db #0x7f	; 127
      000CBF 7F                    6457 	.db #0x7f	; 127
      000CC0 7F                    6458 	.db #0x7f	; 127
      000CC1 7F                    6459 	.db #0x7f	; 127
      000CC2 7F                    6460 	.db #0x7f	; 127
      000CC3 7F                    6461 	.db #0x7f	; 127
      000CC4 7F                    6462 	.db #0x7f	; 127
      000CC5 7F                    6463 	.db #0x7f	; 127
      000CC6 7F                    6464 	.db #0x7f	; 127
      000CC7 7F                    6465 	.db #0x7f	; 127
      000CC8 7F                    6466 	.db #0x7f	; 127
      000CC9 7F                    6467 	.db #0x7f	; 127
      000CCA 7F                    6468 	.db #0x7f	; 127
      000CCB 7F                    6469 	.db #0x7f	; 127
      000CCC 7F                    6470 	.db #0x7f	; 127
      000CCD 7F                    6471 	.db #0x7f	; 127
      000CCE 7F                    6472 	.db #0x7f	; 127
      000CCF 7F                    6473 	.db #0x7f	; 127
      000CD0 7F                    6474 	.db #0x7f	; 127
      000CD1 7F                    6475 	.db #0x7f	; 127
      000CD2 7F                    6476 	.db #0x7f	; 127
      000CD3 7F                    6477 	.db #0x7f	; 127
      000CD4 7F                    6478 	.db #0x7f	; 127
      000CD5 7F                    6479 	.db #0x7f	; 127
      000CD6 7F                    6480 	.db #0x7f	; 127
      000CD7 7F                    6481 	.db #0x7f	; 127
      000CD8 7F                    6482 	.db #0x7f	; 127
      000CD9 7F                    6483 	.db #0x7f	; 127
      000CDA 7F                    6484 	.db #0x7f	; 127
      000CDB 7F                    6485 	.db #0x7f	; 127
      000CDC 7F                    6486 	.db #0x7f	; 127
      000CDD 7F                    6487 	.db #0x7f	; 127
      000CDE 7F                    6488 	.db #0x7f	; 127
      000CDF 7F                    6489 	.db #0x7f	; 127
      000CE0 7F                    6490 	.db #0x7f	; 127
      000CE1 7F                    6491 	.db #0x7f	; 127
      000CE2 7F                    6492 	.db #0x7f	; 127
      000CE3 7F                    6493 	.db #0x7f	; 127
      000CE4 7F                    6494 	.db #0x7f	; 127
      000CE5 7F                    6495 	.db #0x7f	; 127
      000CE6 7F                    6496 	.db #0x7f	; 127
      000CE7 7F                    6497 	.db #0x7f	; 127
      000CE8 7F                    6498 	.db #0x7f	; 127
      000CE9 7F                    6499 	.db #0x7f	; 127
      000CEA 7F                    6500 	.db #0x7f	; 127
      000CEB 7F                    6501 	.db #0x7f	; 127
      000CEC 7F                    6502 	.db #0x7f	; 127
      000CED 7F                    6503 	.db #0x7f	; 127
      000CEE 7F                    6504 	.db #0x7f	; 127
      000CEF 7F                    6505 	.db #0x7f	; 127
      000CF0 7F                    6506 	.db #0x7f	; 127
      000CF1 7F                    6507 	.db #0x7f	; 127
      000CF2 7F                    6508 	.db #0x7f	; 127
      000CF3 7F                    6509 	.db #0x7f	; 127
      000CF4 7F                    6510 	.db #0x7f	; 127
      000CF5 7F                    6511 	.db #0x7f	; 127
      000CF6 7F                    6512 	.db #0x7f	; 127
      000CF7 7F                    6513 	.db #0x7f	; 127
      000CF8 7F                    6514 	.db #0x7f	; 127
      000CF9 7F                    6515 	.db #0x7f	; 127
      000CFA 7F                    6516 	.db #0x7f	; 127
      000CFB 7F                    6517 	.db #0x7f	; 127
      000CFC 7F                    6518 	.db #0x7f	; 127
      000CFD 7F                    6519 	.db #0x7f	; 127
      000CFE 7F                    6520 	.db #0x7f	; 127
      000CFF 7F                    6521 	.db #0x7f	; 127
      000D00 7F                    6522 	.db #0x7f	; 127
      000D01 7F                    6523 	.db #0x7f	; 127
      000D02 7F                    6524 	.db #0x7f	; 127
      000D03 7F                    6525 	.db #0x7f	; 127
      000D04 7F                    6526 	.db #0x7f	; 127
      000D05 7F                    6527 	.db #0x7f	; 127
      000D06 7F                    6528 	.db #0x7f	; 127
      000D07 7F                    6529 	.db #0x7f	; 127
      000D08 7F                    6530 	.db #0x7f	; 127
      000D09 7F                    6531 	.db #0x7f	; 127
      000D0A 7F                    6532 	.db #0x7f	; 127
      000D0B 7F                    6533 	.db #0x7f	; 127
      000D0C 7F                    6534 	.db #0x7f	; 127
      000D0D 7F                    6535 	.db #0x7f	; 127
      000D0E 7F                    6536 	.db #0x7f	; 127
      000D0F 7F                    6537 	.db #0x7f	; 127
      000D10 7F                    6538 	.db #0x7f	; 127
      000D11 7F                    6539 	.db #0x7f	; 127
      000D12 7F                    6540 	.db #0x7f	; 127
      000D13 7F                    6541 	.db #0x7f	; 127
      000D14 7F                    6542 	.db #0x7f	; 127
      000D15 7F                    6543 	.db #0x7f	; 127
      000D16 7F                    6544 	.db #0x7f	; 127
      000D17 7F                    6545 	.db #0x7f	; 127
      000D18 7F                    6546 	.db #0x7f	; 127
      000D19 7F                    6547 	.db #0x7f	; 127
      000D1A 7F                    6548 	.db #0x7f	; 127
      000D1B 7F                    6549 	.db #0x7f	; 127
      000D1C 7F                    6550 	.db #0x7f	; 127
      000D1D 7F                    6551 	.db #0x7f	; 127
      000D1E 7F                    6552 	.db #0x7f	; 127
      000D1F 7F                    6553 	.db #0x7f	; 127
      000D20 7F                    6554 	.db #0x7f	; 127
      000D21 7F                    6555 	.db #0x7f	; 127
      000D22 7F                    6556 	.db #0x7f	; 127
      000D23 7F                    6557 	.db #0x7f	; 127
      000D24 7F                    6558 	.db #0x7f	; 127
      000D25 7F                    6559 	.db #0x7f	; 127
      000D26 7F                    6560 	.db #0x7f	; 127
      000D27 7F                    6561 	.db #0x7f	; 127
      000D28 7F                    6562 	.db #0x7f	; 127
      000D29 7F                    6563 	.db #0x7f	; 127
      000D2A 7F                    6564 	.db #0x7f	; 127
      000D2B 7F                    6565 	.db #0x7f	; 127
      000D2C 7F                    6566 	.db #0x7f	; 127
      000D2D 7F                    6567 	.db #0x7f	; 127
      000D2E 7F                    6568 	.db #0x7f	; 127
      000D2F 7F                    6569 	.db #0x7f	; 127
      000D30 7F                    6570 	.db #0x7f	; 127
      000D31 7F                    6571 	.db #0x7f	; 127
      000D32 7F                    6572 	.db #0x7f	; 127
      000D33 7F                    6573 	.db #0x7f	; 127
      000D34 7F                    6574 	.db #0x7f	; 127
      000D35 7F                    6575 	.db #0x7f	; 127
      000D36 7F                    6576 	.db #0x7f	; 127
      000D37 7F                    6577 	.db #0x7f	; 127
      000D38 7F                    6578 	.db #0x7f	; 127
      000D39 7F                    6579 	.db #0x7f	; 127
      000D3A 7F                    6580 	.db #0x7f	; 127
      000D3B 7F                    6581 	.db #0x7f	; 127
      000D3C 7F                    6582 	.db #0x7f	; 127
      000D3D 7F                    6583 	.db #0x7f	; 127
      000D3E 7F                    6584 	.db #0x7f	; 127
      000D3F 7F                    6585 	.db #0x7f	; 127
      000D40 7F                    6586 	.db #0x7f	; 127
      000D41 7F                    6587 	.db #0x7f	; 127
      000D42 7F                    6588 	.db #0x7f	; 127
      000D43 7F                    6589 	.db #0x7f	; 127
      000D44 7F                    6590 	.db #0x7f	; 127
      000D45 7F                    6591 	.db #0x7f	; 127
      000D46 7F                    6592 	.db #0x7f	; 127
      000D47 7F                    6593 	.db #0x7f	; 127
      000D48 7F                    6594 	.db #0x7f	; 127
      000D49 7F                    6595 	.db #0x7f	; 127
      000D4A 7F                    6596 	.db #0x7f	; 127
      000D4B 7F                    6597 	.db #0x7f	; 127
      000D4C 7F                    6598 	.db #0x7f	; 127
      000D4D 7F                    6599 	.db #0x7f	; 127
      000D4E 7F                    6600 	.db #0x7f	; 127
      000D4F 7F                    6601 	.db #0x7f	; 127
      000D50 7F                    6602 	.db #0x7f	; 127
      000D51 7F                    6603 	.db #0x7f	; 127
      000D52 7F                    6604 	.db #0x7f	; 127
      000D53 7F                    6605 	.db #0x7f	; 127
      000D54 7F                    6606 	.db #0x7f	; 127
      000D55 7F                    6607 	.db #0x7f	; 127
      000D56 7F                    6608 	.db #0x7f	; 127
      000D57 7F                    6609 	.db #0x7f	; 127
      000D58 7F                    6610 	.db #0x7f	; 127
      000D59 7F                    6611 	.db #0x7f	; 127
      000D5A 7F                    6612 	.db #0x7f	; 127
      000D5B 7F                    6613 	.db #0x7f	; 127
      000D5C 7F                    6614 	.db #0x7f	; 127
      000D5D 7F                    6615 	.db #0x7f	; 127
      000D5E 7F                    6616 	.db #0x7f	; 127
      000D5F 7F                    6617 	.db #0x7f	; 127
      000D60 7F                    6618 	.db #0x7f	; 127
      000D61 7F                    6619 	.db #0x7f	; 127
      000D62 7F                    6620 	.db #0x7f	; 127
      000D63 7F                    6621 	.db #0x7f	; 127
      000D64 7F                    6622 	.db #0x7f	; 127
      000D65 7F                    6623 	.db #0x7f	; 127
      000D66 7F                    6624 	.db #0x7f	; 127
      000D67 7F                    6625 	.db #0x7f	; 127
      000D68 7F                    6626 	.db #0x7f	; 127
      000D69 7F                    6627 	.db #0x7f	; 127
      000D6A 7F                    6628 	.db #0x7f	; 127
      000D6B 7F                    6629 	.db #0x7f	; 127
      000D6C 7F                    6630 	.db #0x7f	; 127
      000D6D 7F                    6631 	.db #0x7f	; 127
      000D6E 7F                    6632 	.db #0x7f	; 127
      000D6F 7F                    6633 	.db #0x7f	; 127
      000D70 7F                    6634 	.db #0x7f	; 127
      000D71 7F                    6635 	.db #0x7f	; 127
      000D72 7F                    6636 	.db #0x7f	; 127
      000D73 7F                    6637 	.db #0x7f	; 127
      000D74 7F                    6638 	.db #0x7f	; 127
      000D75 7F                    6639 	.db #0x7f	; 127
      000D76 7F                    6640 	.db #0x7f	; 127
      000D77 7F                    6641 	.db #0x7f	; 127
      000D78 7F                    6642 	.db #0x7f	; 127
      000D79 7F                    6643 	.db #0x7f	; 127
      000D7A 7F                    6644 	.db #0x7f	; 127
      000D7B 7F                    6645 	.db #0x7f	; 127
      000D7C 7F                    6646 	.db #0x7f	; 127
      000D7D 7F                    6647 	.db #0x7f	; 127
      000D7E 7F                    6648 	.db #0x7f	; 127
      000D7F 7F                    6649 	.db #0x7f	; 127
      000D80 7F                    6650 	.db #0x7f	; 127
      000D81 7F                    6651 	.db #0x7f	; 127
      000D82 7F                    6652 	.db #0x7f	; 127
      000D83 7F                    6653 	.db #0x7f	; 127
      000D84 7F                    6654 	.db #0x7f	; 127
      000D85 7F                    6655 	.db #0x7f	; 127
      000D86 7F                    6656 	.db #0x7f	; 127
      000D87 7F                    6657 	.db #0x7f	; 127
      000D88 7F                    6658 	.db #0x7f	; 127
      000D89 7F                    6659 	.db #0x7f	; 127
      000D8A 7F                    6660 	.db #0x7f	; 127
      000D8B 7F                    6661 	.db #0x7f	; 127
      000D8C 7F                    6662 	.db #0x7f	; 127
      000D8D 7F                    6663 	.db #0x7f	; 127
      000D8E 7F                    6664 	.db #0x7f	; 127
      000D8F 7F                    6665 	.db #0x7f	; 127
      000D90 7F                    6666 	.db #0x7f	; 127
      000D91 7F                    6667 	.db #0x7f	; 127
      000D92 7F                    6668 	.db #0x7f	; 127
      000D93 7F                    6669 	.db #0x7f	; 127
      000D94 7F                    6670 	.db #0x7f	; 127
      000D95 7F                    6671 	.db #0x7f	; 127
      000D96 7F                    6672 	.db #0x7f	; 127
      000D97 7F                    6673 	.db #0x7f	; 127
      000D98 7F                    6674 	.db #0x7f	; 127
      000D99 7F                    6675 	.db #0x7f	; 127
      000D9A 7F                    6676 	.db #0x7f	; 127
      000D9B 7F                    6677 	.db #0x7f	; 127
      000D9C 7F                    6678 	.db #0x7f	; 127
      000D9D 7F                    6679 	.db #0x7f	; 127
      000D9E 7F                    6680 	.db #0x7f	; 127
      000D9F 7F                    6681 	.db #0x7f	; 127
      000DA0 7F                    6682 	.db #0x7f	; 127
      000DA1 7F                    6683 	.db #0x7f	; 127
      000DA2 7F                    6684 	.db #0x7f	; 127
      000DA3 7F                    6685 	.db #0x7f	; 127
      000DA4 7F                    6686 	.db #0x7f	; 127
      000DA5 7F                    6687 	.db #0x7f	; 127
      000DA6 7F                    6688 	.db #0x7f	; 127
      000DA7 7F                    6689 	.db #0x7f	; 127
      000DA8 7F                    6690 	.db #0x7f	; 127
      000DA9 7F                    6691 	.db #0x7f	; 127
      000DAA 7F                    6692 	.db #0x7f	; 127
      000DAB 7F                    6693 	.db #0x7f	; 127
      000DAC 7F                    6694 	.db #0x7f	; 127
      000DAD 7F                    6695 	.db #0x7f	; 127
      000DAE 7F                    6696 	.db #0x7f	; 127
      000DAF 7F                    6697 	.db #0x7f	; 127
      000DB0 7F                    6698 	.db #0x7f	; 127
      000DB1 7F                    6699 	.db #0x7f	; 127
      000DB2 7F                    6700 	.db #0x7f	; 127
      000DB3 7F                    6701 	.db #0x7f	; 127
      000DB4 7F                    6702 	.db #0x7f	; 127
      000DB5 7F                    6703 	.db #0x7f	; 127
      000DB6 7F                    6704 	.db #0x7f	; 127
      000DB7 7F                    6705 	.db #0x7f	; 127
      000DB8 7F                    6706 	.db #0x7f	; 127
      000DB9 7F                    6707 	.db #0x7f	; 127
      000DBA 7F                    6708 	.db #0x7f	; 127
      000DBB 7F                    6709 	.db #0x7f	; 127
      000DBC 7F                    6710 	.db #0x7f	; 127
      000DBD 7F                    6711 	.db #0x7f	; 127
      000DBE 7F                    6712 	.db #0x7f	; 127
      000DBF 7F                    6713 	.db #0x7f	; 127
      000DC0 7F                    6714 	.db #0x7f	; 127
      000DC1 7F                    6715 	.db #0x7f	; 127
      000DC2 7F                    6716 	.db #0x7f	; 127
      000DC3 7F                    6717 	.db #0x7f	; 127
      000DC4 7F                    6718 	.db #0x7f	; 127
      000DC5 7F                    6719 	.db #0x7f	; 127
      000DC6 7F                    6720 	.db #0x7f	; 127
      000DC7 7F                    6721 	.db #0x7f	; 127
      000DC8 7F                    6722 	.db #0x7f	; 127
      000DC9 7F                    6723 	.db #0x7f	; 127
      000DCA 7F                    6724 	.db #0x7f	; 127
      000DCB 7F                    6725 	.db #0x7f	; 127
      000DCC 7F                    6726 	.db #0x7f	; 127
      000DCD 7F                    6727 	.db #0x7f	; 127
      000DCE 7F                    6728 	.db #0x7f	; 127
      000DCF 7F                    6729 	.db #0x7f	; 127
      000DD0 7F                    6730 	.db #0x7f	; 127
      000DD1 7F                    6731 	.db #0x7f	; 127
      000DD2 7F                    6732 	.db #0x7f	; 127
      000DD3 7F                    6733 	.db #0x7f	; 127
      000DD4 7F                    6734 	.db #0x7f	; 127
      000DD5 7F                    6735 	.db #0x7f	; 127
      000DD6 7F                    6736 	.db #0x7f	; 127
      000DD7 7F                    6737 	.db #0x7f	; 127
      000DD8 7F                    6738 	.db #0x7f	; 127
      000DD9 7F                    6739 	.db #0x7f	; 127
      000DDA 7F                    6740 	.db #0x7f	; 127
      000DDB 7F                    6741 	.db #0x7f	; 127
      000DDC 7F                    6742 	.db #0x7f	; 127
      000DDD 7F                    6743 	.db #0x7f	; 127
      000DDE 7F                    6744 	.db #0x7f	; 127
      000DDF 7F                    6745 	.db #0x7f	; 127
      000DE0 7F                    6746 	.db #0x7f	; 127
      000DE1 7F                    6747 	.db #0x7f	; 127
      000DE2 7F                    6748 	.db #0x7f	; 127
      000DE3 7F                    6749 	.db #0x7f	; 127
      000DE4 7F                    6750 	.db #0x7f	; 127
      000DE5 7F                    6751 	.db #0x7f	; 127
      000DE6 7F                    6752 	.db #0x7f	; 127
      000DE7 7F                    6753 	.db #0x7f	; 127
      000DE8 7F                    6754 	.db #0x7f	; 127
      000DE9 7F                    6755 	.db #0x7f	; 127
      000DEA 7F                    6756 	.db #0x7f	; 127
      000DEB 7F                    6757 	.db #0x7f	; 127
      000DEC 7F                    6758 	.db #0x7f	; 127
      000DED 7F                    6759 	.db #0x7f	; 127
      000DEE 7F                    6760 	.db #0x7f	; 127
      000DEF 7F                    6761 	.db #0x7f	; 127
      000DF0 7F                    6762 	.db #0x7f	; 127
      000DF1 7F                    6763 	.db #0x7f	; 127
      000DF2 7F                    6764 	.db #0x7f	; 127
      000DF3 7F                    6765 	.db #0x7f	; 127
      000DF4 7F                    6766 	.db #0x7f	; 127
      000DF5 7F                    6767 	.db #0x7f	; 127
      000DF6 7F                    6768 	.db #0x7f	; 127
      000DF7 7F                    6769 	.db #0x7f	; 127
      000DF8 7F                    6770 	.db #0x7f	; 127
      000DF9 7F                    6771 	.db #0x7f	; 127
      000DFA 7F                    6772 	.db #0x7f	; 127
      000DFB 7F                    6773 	.db #0x7f	; 127
      000DFC 7F                    6774 	.db #0x7f	; 127
      000DFD 7F                    6775 	.db #0x7f	; 127
      000DFE 7F                    6776 	.db #0x7f	; 127
      000DFF 7F                    6777 	.db #0x7f	; 127
      000E00 7F                    6778 	.db #0x7f	; 127
      000E01 7F                    6779 	.db #0x7f	; 127
      000E02 7F                    6780 	.db #0x7f	; 127
      000E03 7F                    6781 	.db #0x7f	; 127
      000E04 7F                    6782 	.db #0x7f	; 127
      000E05 7F                    6783 	.db #0x7f	; 127
      000E06 7F                    6784 	.db #0x7f	; 127
      000E07 7F                    6785 	.db #0x7f	; 127
      000E08 7F                    6786 	.db #0x7f	; 127
      000E09 7F                    6787 	.db #0x7f	; 127
      000E0A 7F                    6788 	.db #0x7f	; 127
      000E0B 7F                    6789 	.db #0x7f	; 127
      000E0C 7F                    6790 	.db #0x7f	; 127
      000E0D 7F                    6791 	.db #0x7f	; 127
      000E0E 7F                    6792 	.db #0x7f	; 127
      000E0F 7F                    6793 	.db #0x7f	; 127
      000E10 7F                    6794 	.db #0x7f	; 127
      000E11 7F                    6795 	.db #0x7f	; 127
      000E12 7F                    6796 	.db #0x7f	; 127
      000E13 7F                    6797 	.db #0x7f	; 127
      000E14 7F                    6798 	.db #0x7f	; 127
      000E15 7F                    6799 	.db #0x7f	; 127
      000E16 7F                    6800 	.db #0x7f	; 127
      000E17 7F                    6801 	.db #0x7f	; 127
      000E18 7F                    6802 	.db #0x7f	; 127
      000E19 7F                    6803 	.db #0x7f	; 127
      000E1A 7F                    6804 	.db #0x7f	; 127
      000E1B 7F                    6805 	.db #0x7f	; 127
      000E1C 7F                    6806 	.db #0x7f	; 127
      000E1D 7F                    6807 	.db #0x7f	; 127
      000E1E 7F                    6808 	.db #0x7f	; 127
      000E1F 7F                    6809 	.db #0x7f	; 127
      000E20 7F                    6810 	.db #0x7f	; 127
      000E21 7F                    6811 	.db #0x7f	; 127
      000E22 7F                    6812 	.db #0x7f	; 127
      000E23 7F                    6813 	.db #0x7f	; 127
      000E24 7F                    6814 	.db #0x7f	; 127
      000E25 7F                    6815 	.db #0x7f	; 127
      000E26 7F                    6816 	.db #0x7f	; 127
      000E27 7F                    6817 	.db #0x7f	; 127
      000E28 7F                    6818 	.db #0x7f	; 127
      000E29 7F                    6819 	.db #0x7f	; 127
      000E2A 7F                    6820 	.db #0x7f	; 127
      000E2B 7F                    6821 	.db #0x7f	; 127
      000E2C 7F                    6822 	.db #0x7f	; 127
      000E2D 7F                    6823 	.db #0x7f	; 127
      000E2E 7F                    6824 	.db #0x7f	; 127
      000E2F 7F                    6825 	.db #0x7f	; 127
      000E30 7F                    6826 	.db #0x7f	; 127
      000E31 7F                    6827 	.db #0x7f	; 127
      000E32 7F                    6828 	.db #0x7f	; 127
      000E33 7F                    6829 	.db #0x7f	; 127
      000E34 7F                    6830 	.db #0x7f	; 127
      000E35 7F                    6831 	.db #0x7f	; 127
      000E36 7F                    6832 	.db #0x7f	; 127
      000E37 7F                    6833 	.db #0x7f	; 127
      000E38 7F                    6834 	.db #0x7f	; 127
      000E39 7F                    6835 	.db #0x7f	; 127
      000E3A 7F                    6836 	.db #0x7f	; 127
      000E3B 7F                    6837 	.db #0x7f	; 127
      000E3C 7F                    6838 	.db #0x7f	; 127
      000E3D 7F                    6839 	.db #0x7f	; 127
      000E3E 7F                    6840 	.db #0x7f	; 127
      000E3F 7F                    6841 	.db #0x7f	; 127
      000E40 7F                    6842 	.db #0x7f	; 127
      000E41 7F                    6843 	.db #0x7f	; 127
      000E42 7F                    6844 	.db #0x7f	; 127
      000E43 7F                    6845 	.db #0x7f	; 127
      000E44 7F                    6846 	.db #0x7f	; 127
      000E45 7F                    6847 	.db #0x7f	; 127
      000E46 7F                    6848 	.db #0x7f	; 127
      000E47 7F                    6849 	.db #0x7f	; 127
      000E48 7F                    6850 	.db #0x7f	; 127
      000E49 7F                    6851 	.db #0x7f	; 127
      000E4A 7F                    6852 	.db #0x7f	; 127
      000E4B 7F                    6853 	.db #0x7f	; 127
      000E4C 7F                    6854 	.db #0x7f	; 127
      000E4D 7F                    6855 	.db #0x7f	; 127
      000E4E 7F                    6856 	.db #0x7f	; 127
      000E4F 7F                    6857 	.db #0x7f	; 127
      000E50 7F                    6858 	.db #0x7f	; 127
      000E51 7F                    6859 	.db #0x7f	; 127
      000E52 7F                    6860 	.db #0x7f	; 127
      000E53 7F                    6861 	.db #0x7f	; 127
      000E54 7F                    6862 	.db #0x7f	; 127
      000E55 7F                    6863 	.db #0x7f	; 127
      000E56 7F                    6864 	.db #0x7f	; 127
      000E57 7F                    6865 	.db #0x7f	; 127
      000E58 7F                    6866 	.db #0x7f	; 127
      000E59 7F                    6867 	.db #0x7f	; 127
      000E5A 7F                    6868 	.db #0x7f	; 127
      000E5B 7F                    6869 	.db #0x7f	; 127
      000E5C 7F                    6870 	.db #0x7f	; 127
      000E5D 7F                    6871 	.db #0x7f	; 127
      000E5E 7F                    6872 	.db #0x7f	; 127
      000E5F 7F                    6873 	.db #0x7f	; 127
      000E60 7F                    6874 	.db #0x7f	; 127
      000E61 7F                    6875 	.db #0x7f	; 127
      000E62 7F                    6876 	.db #0x7f	; 127
      000E63 7F                    6877 	.db #0x7f	; 127
      000E64 7F                    6878 	.db #0x7f	; 127
      000E65 7F                    6879 	.db #0x7f	; 127
      000E66 7F                    6880 	.db #0x7f	; 127
      000E67 7F                    6881 	.db #0x7f	; 127
      000E68 7F                    6882 	.db #0x7f	; 127
      000E69 7F                    6883 	.db #0x7f	; 127
      000E6A 7F                    6884 	.db #0x7f	; 127
      000E6B 7F                    6885 	.db #0x7f	; 127
      000E6C 7F                    6886 	.db #0x7f	; 127
      000E6D 7F                    6887 	.db #0x7f	; 127
      000E6E 7F                    6888 	.db #0x7f	; 127
      000E6F 7F                    6889 	.db #0x7f	; 127
      000E70 7F                    6890 	.db #0x7f	; 127
      000E71 7F                    6891 	.db #0x7f	; 127
      000E72 7F                    6892 	.db #0x7f	; 127
      000E73 7F                    6893 	.db #0x7f	; 127
      000E74 7F                    6894 	.db #0x7f	; 127
      000E75 7F                    6895 	.db #0x7f	; 127
      000E76 7F                    6896 	.db #0x7f	; 127
      000E77 7F                    6897 	.db #0x7f	; 127
      000E78 7F                    6898 	.db #0x7f	; 127
      000E79 7F                    6899 	.db #0x7f	; 127
      000E7A 7F                    6900 	.db #0x7f	; 127
      000E7B 7F                    6901 	.db #0x7f	; 127
      000E7C 7F                    6902 	.db #0x7f	; 127
      000E7D 7F                    6903 	.db #0x7f	; 127
      000E7E 7F                    6904 	.db #0x7f	; 127
      000E7F 7F                    6905 	.db #0x7f	; 127
      000E80 7F                    6906 	.db #0x7f	; 127
      000E81 7F                    6907 	.db #0x7f	; 127
      000E82 7F                    6908 	.db #0x7f	; 127
      000E83 7F                    6909 	.db #0x7f	; 127
      000E84 7F                    6910 	.db #0x7f	; 127
      000E85 7F                    6911 	.db #0x7f	; 127
      000E86 7F                    6912 	.db #0x7f	; 127
      000E87 7F                    6913 	.db #0x7f	; 127
      000E88 7F                    6914 	.db #0x7f	; 127
      000E89 7F                    6915 	.db #0x7f	; 127
      000E8A 7F                    6916 	.db #0x7f	; 127
      000E8B 7F                    6917 	.db #0x7f	; 127
      000E8C 7F                    6918 	.db #0x7f	; 127
      000E8D 7F                    6919 	.db #0x7f	; 127
      000E8E 7F                    6920 	.db #0x7f	; 127
      000E8F 7F                    6921 	.db #0x7f	; 127
      000E90 7F                    6922 	.db #0x7f	; 127
      000E91 7F                    6923 	.db #0x7f	; 127
      000E92 7F                    6924 	.db #0x7f	; 127
      000E93 7F                    6925 	.db #0x7f	; 127
      000E94 7F                    6926 	.db #0x7f	; 127
      000E95 7F                    6927 	.db #0x7f	; 127
      000E96 7F                    6928 	.db #0x7f	; 127
      000E97 7F                    6929 	.db #0x7f	; 127
      000E98 7F                    6930 	.db #0x7f	; 127
      000E99 7F                    6931 	.db #0x7f	; 127
      000E9A 7F                    6932 	.db #0x7f	; 127
      000E9B 7F                    6933 	.db #0x7f	; 127
      000E9C 7F                    6934 	.db #0x7f	; 127
      000E9D 7F                    6935 	.db #0x7f	; 127
      000E9E 7F                    6936 	.db #0x7f	; 127
      000E9F 7F                    6937 	.db #0x7f	; 127
      000EA0 7F                    6938 	.db #0x7f	; 127
      000EA1 7F                    6939 	.db #0x7f	; 127
      000EA2 7F                    6940 	.db #0x7f	; 127
      000EA3 7F                    6941 	.db #0x7f	; 127
      000EA4 7F                    6942 	.db #0x7f	; 127
      000EA5 7F                    6943 	.db #0x7f	; 127
      000EA6 7F                    6944 	.db #0x7f	; 127
      000EA7 7F                    6945 	.db #0x7f	; 127
      000EA8 7F                    6946 	.db #0x7f	; 127
      000EA9 7F                    6947 	.db #0x7f	; 127
      000EAA 7F                    6948 	.db #0x7f	; 127
      000EAB 7F                    6949 	.db #0x7f	; 127
      000EAC 7F                    6950 	.db #0x7f	; 127
      000EAD 7F                    6951 	.db #0x7f	; 127
      000EAE 7F                    6952 	.db #0x7f	; 127
      000EAF 7F                    6953 	.db #0x7f	; 127
      000EB0 7F                    6954 	.db #0x7f	; 127
      000EB1 7F                    6955 	.db #0x7f	; 127
      000EB2 7F                    6956 	.db #0x7f	; 127
      000EB3 7F                    6957 	.db #0x7f	; 127
      000EB4 7F                    6958 	.db #0x7f	; 127
      000EB5 7F                    6959 	.db #0x7f	; 127
      000EB6 7F                    6960 	.db #0x7f	; 127
      000EB7 7F                    6961 	.db #0x7f	; 127
      000EB8 7F                    6962 	.db #0x7f	; 127
      000EB9 7F                    6963 	.db #0x7f	; 127
      000EBA 7F                    6964 	.db #0x7f	; 127
      000EBB 7F                    6965 	.db #0x7f	; 127
      000EBC 7F                    6966 	.db #0x7f	; 127
      000EBD 7F                    6967 	.db #0x7f	; 127
      000EBE 7F                    6968 	.db #0x7f	; 127
      000EBF 7F                    6969 	.db #0x7f	; 127
      000EC0 7F                    6970 	.db #0x7f	; 127
      000EC1 7F                    6971 	.db #0x7f	; 127
      000EC2 7F                    6972 	.db #0x7f	; 127
      000EC3 7F                    6973 	.db #0x7f	; 127
      000EC4 7F                    6974 	.db #0x7f	; 127
      000EC5 7F                    6975 	.db #0x7f	; 127
      000EC6 7F                    6976 	.db #0x7f	; 127
      000EC7 7F                    6977 	.db #0x7f	; 127
      000EC8 7F                    6978 	.db #0x7f	; 127
      000EC9 7F                    6979 	.db #0x7f	; 127
      000ECA 7F                    6980 	.db #0x7f	; 127
      000ECB 7F                    6981 	.db #0x7f	; 127
      000ECC 7F                    6982 	.db #0x7f	; 127
      000ECD 7F                    6983 	.db #0x7f	; 127
      000ECE 7F                    6984 	.db #0x7f	; 127
      000ECF 7F                    6985 	.db #0x7f	; 127
      000ED0 7F                    6986 	.db #0x7f	; 127
      000ED1 7F                    6987 	.db #0x7f	; 127
      000ED2 7F                    6988 	.db #0x7f	; 127
      000ED3 7F                    6989 	.db #0x7f	; 127
      000ED4 7F                    6990 	.db #0x7f	; 127
      000ED5 7F                    6991 	.db #0x7f	; 127
      000ED6 7F                    6992 	.db #0x7f	; 127
      000ED7 7F                    6993 	.db #0x7f	; 127
      000ED8 7F                    6994 	.db #0x7f	; 127
      000ED9 7F                    6995 	.db #0x7f	; 127
      000EDA 7F                    6996 	.db #0x7f	; 127
      000EDB 7F                    6997 	.db #0x7f	; 127
      000EDC 7F                    6998 	.db #0x7f	; 127
      000EDD 7F                    6999 	.db #0x7f	; 127
      000EDE 7F                    7000 	.db #0x7f	; 127
      000EDF 7F                    7001 	.db #0x7f	; 127
      000EE0 7F                    7002 	.db #0x7f	; 127
      000EE1 7F                    7003 	.db #0x7f	; 127
      000EE2 7F                    7004 	.db #0x7f	; 127
      000EE3 7F                    7005 	.db #0x7f	; 127
      000EE4 7F                    7006 	.db #0x7f	; 127
      000EE5 7F                    7007 	.db #0x7f	; 127
      000EE6 7F                    7008 	.db #0x7f	; 127
      000EE7 7F                    7009 	.db #0x7f	; 127
      000EE8 7F                    7010 	.db #0x7f	; 127
      000EE9 7F                    7011 	.db #0x7f	; 127
      000EEA 7F                    7012 	.db #0x7f	; 127
      000EEB 7F                    7013 	.db #0x7f	; 127
      000EEC 7F                    7014 	.db #0x7f	; 127
      000EED 7F                    7015 	.db #0x7f	; 127
      000EEE 7F                    7016 	.db #0x7f	; 127
      000EEF 7F                    7017 	.db #0x7f	; 127
      000EF0 7F                    7018 	.db #0x7f	; 127
      000EF1 7F                    7019 	.db #0x7f	; 127
      000EF2 7F                    7020 	.db #0x7f	; 127
      000EF3 7F                    7021 	.db #0x7f	; 127
      000EF4 7F                    7022 	.db #0x7f	; 127
      000EF5 7F                    7023 	.db #0x7f	; 127
      000EF6 7F                    7024 	.db #0x7f	; 127
      000EF7 7F                    7025 	.db #0x7f	; 127
      000EF8 7F                    7026 	.db #0x7f	; 127
      000EF9 7F                    7027 	.db #0x7f	; 127
      000EFA 7F                    7028 	.db #0x7f	; 127
      000EFB 7F                    7029 	.db #0x7f	; 127
      000EFC 7F                    7030 	.db #0x7f	; 127
      000EFD 7F                    7031 	.db #0x7f	; 127
      000EFE 7F                    7032 	.db #0x7f	; 127
      000EFF 7F                    7033 	.db #0x7f	; 127
      000F00 7F                    7034 	.db #0x7f	; 127
      000F01 7F                    7035 	.db #0x7f	; 127
      000F02 7F                    7036 	.db #0x7f	; 127
      000F03 7F                    7037 	.db #0x7f	; 127
      000F04 7F                    7038 	.db #0x7f	; 127
      000F05 7F                    7039 	.db #0x7f	; 127
      000F06 7F                    7040 	.db #0x7f	; 127
      000F07 7F                    7041 	.db #0x7f	; 127
      000F08 7F                    7042 	.db #0x7f	; 127
      000F09 7F                    7043 	.db #0x7f	; 127
      000F0A 7F                    7044 	.db #0x7f	; 127
      000F0B 7F                    7045 	.db #0x7f	; 127
      000F0C 7F                    7046 	.db #0x7f	; 127
      000F0D 7F                    7047 	.db #0x7f	; 127
      000F0E 7F                    7048 	.db #0x7f	; 127
      000F0F 7F                    7049 	.db #0x7f	; 127
      000F10 7F                    7050 	.db #0x7f	; 127
      000F11 7F                    7051 	.db #0x7f	; 127
      000F12 7F                    7052 	.db #0x7f	; 127
      000F13 7F                    7053 	.db #0x7f	; 127
      000F14 7F                    7054 	.db #0x7f	; 127
      000F15 7F                    7055 	.db #0x7f	; 127
      000F16 7F                    7056 	.db #0x7f	; 127
      000F17 7F                    7057 	.db #0x7f	; 127
      000F18 7F                    7058 	.db #0x7f	; 127
      000F19 7F                    7059 	.db #0x7f	; 127
      000F1A 7F                    7060 	.db #0x7f	; 127
      000F1B 7F                    7061 	.db #0x7f	; 127
      000F1C 7F                    7062 	.db #0x7f	; 127
      000F1D 7F                    7063 	.db #0x7f	; 127
      000F1E 7F                    7064 	.db #0x7f	; 127
      000F1F 7F                    7065 	.db #0x7f	; 127
      000F20 7F                    7066 	.db #0x7f	; 127
      000F21 7F                    7067 	.db #0x7f	; 127
      000F22 7F                    7068 	.db #0x7f	; 127
      000F23 7F                    7069 	.db #0x7f	; 127
      000F24 7F                    7070 	.db #0x7f	; 127
      000F25 7F                    7071 	.db #0x7f	; 127
      000F26 7F                    7072 	.db #0x7f	; 127
      000F27 7F                    7073 	.db #0x7f	; 127
      000F28 7F                    7074 	.db #0x7f	; 127
      000F29 7F                    7075 	.db #0x7f	; 127
      000F2A 7F                    7076 	.db #0x7f	; 127
      000F2B 7F                    7077 	.db #0x7f	; 127
      000F2C 7F                    7078 	.db #0x7f	; 127
      000F2D 7F                    7079 	.db #0x7f	; 127
      000F2E 7F                    7080 	.db #0x7f	; 127
      000F2F 7F                    7081 	.db #0x7f	; 127
      000F30 7F                    7082 	.db #0x7f	; 127
      000F31 7F                    7083 	.db #0x7f	; 127
      000F32 7F                    7084 	.db #0x7f	; 127
      000F33 7F                    7085 	.db #0x7f	; 127
      000F34 7F                    7086 	.db #0x7f	; 127
      000F35 7F                    7087 	.db #0x7f	; 127
      000F36 7F                    7088 	.db #0x7f	; 127
      000F37 7F                    7089 	.db #0x7f	; 127
      000F38 7F                    7090 	.db #0x7f	; 127
      000F39 7F                    7091 	.db #0x7f	; 127
      000F3A 7F                    7092 	.db #0x7f	; 127
      000F3B 7F                    7093 	.db #0x7f	; 127
      000F3C 7F                    7094 	.db #0x7f	; 127
      000F3D 7F                    7095 	.db #0x7f	; 127
      000F3E 7F                    7096 	.db #0x7f	; 127
      000F3F 7F                    7097 	.db #0x7f	; 127
      000F40 7F                    7098 	.db #0x7f	; 127
      000F41 7F                    7099 	.db #0x7f	; 127
      000F42 7F                    7100 	.db #0x7f	; 127
      000F43 7F                    7101 	.db #0x7f	; 127
      000F44 7F                    7102 	.db #0x7f	; 127
      000F45 7F                    7103 	.db #0x7f	; 127
      000F46 7F                    7104 	.db #0x7f	; 127
      000F47 7F                    7105 	.db #0x7f	; 127
      000F48 7F                    7106 	.db #0x7f	; 127
      000F49 7F                    7107 	.db #0x7f	; 127
      000F4A 7F                    7108 	.db #0x7f	; 127
      000F4B 7F                    7109 	.db #0x7f	; 127
      000F4C 7F                    7110 	.db #0x7f	; 127
      000F4D 7F                    7111 	.db #0x7f	; 127
      000F4E 7F                    7112 	.db #0x7f	; 127
      000F4F 7F                    7113 	.db #0x7f	; 127
      000F50 7F                    7114 	.db #0x7f	; 127
      000F51 7F                    7115 	.db #0x7f	; 127
      000F52 7F                    7116 	.db #0x7f	; 127
      000F53 7F                    7117 	.db #0x7f	; 127
      000F54 7F                    7118 	.db #0x7f	; 127
      000F55 7F                    7119 	.db #0x7f	; 127
      000F56 7F                    7120 	.db #0x7f	; 127
      000F57 7F                    7121 	.db #0x7f	; 127
      000F58 7F                    7122 	.db #0x7f	; 127
      000F59 7F                    7123 	.db #0x7f	; 127
      000F5A 7F                    7124 	.db #0x7f	; 127
      000F5B 7F                    7125 	.db #0x7f	; 127
      000F5C 7F                    7126 	.db #0x7f	; 127
      000F5D 7F                    7127 	.db #0x7f	; 127
      000F5E 7F                    7128 	.db #0x7f	; 127
      000F5F 7F                    7129 	.db #0x7f	; 127
      000F60 7F                    7130 	.db #0x7f	; 127
      000F61 7F                    7131 	.db #0x7f	; 127
      000F62 7F                    7132 	.db #0x7f	; 127
      000F63 7F                    7133 	.db #0x7f	; 127
      000F64 7F                    7134 	.db #0x7f	; 127
      000F65 7F                    7135 	.db #0x7f	; 127
      000F66 7F                    7136 	.db #0x7f	; 127
      000F67 7F                    7137 	.db #0x7f	; 127
      000F68 7F                    7138 	.db #0x7f	; 127
      000F69 7F                    7139 	.db #0x7f	; 127
      000F6A 7F                    7140 	.db #0x7f	; 127
      000F6B 7F                    7141 	.db #0x7f	; 127
      000F6C 7F                    7142 	.db #0x7f	; 127
      000F6D 7F                    7143 	.db #0x7f	; 127
      000F6E 7F                    7144 	.db #0x7f	; 127
      000F6F 7F                    7145 	.db #0x7f	; 127
      000F70 7F                    7146 	.db #0x7f	; 127
      000F71 7F                    7147 	.db #0x7f	; 127
      000F72 7F                    7148 	.db #0x7f	; 127
      000F73 7F                    7149 	.db #0x7f	; 127
      000F74 7F                    7150 	.db #0x7f	; 127
      000F75 7F                    7151 	.db #0x7f	; 127
      000F76 7F                    7152 	.db #0x7f	; 127
      000F77 7F                    7153 	.db #0x7f	; 127
      000F78 7F                    7154 	.db #0x7f	; 127
      000F79 7F                    7155 	.db #0x7f	; 127
      000F7A 7F                    7156 	.db #0x7f	; 127
      000F7B 7F                    7157 	.db #0x7f	; 127
      000F7C 7F                    7158 	.db #0x7f	; 127
      000F7D 7F                    7159 	.db #0x7f	; 127
      000F7E 7F                    7160 	.db #0x7f	; 127
      000F7F 7F                    7161 	.db #0x7f	; 127
      000F80 7F                    7162 	.db #0x7f	; 127
      000F81 7F                    7163 	.db #0x7f	; 127
      000F82 7F                    7164 	.db #0x7f	; 127
      000F83 7F                    7165 	.db #0x7f	; 127
      000F84 7F                    7166 	.db #0x7f	; 127
      000F85 7F                    7167 	.db #0x7f	; 127
      000F86 7F                    7168 	.db #0x7f	; 127
      000F87 7F                    7169 	.db #0x7f	; 127
      000F88 7F                    7170 	.db #0x7f	; 127
      000F89 7F                    7171 	.db #0x7f	; 127
      000F8A 7F                    7172 	.db #0x7f	; 127
      000F8B 7F                    7173 	.db #0x7f	; 127
      000F8C 7F                    7174 	.db #0x7f	; 127
      000F8D 7F                    7175 	.db #0x7f	; 127
      000F8E 7F                    7176 	.db #0x7f	; 127
      000F8F 7F                    7177 	.db #0x7f	; 127
      000F90 7F                    7178 	.db #0x7f	; 127
      000F91 7F                    7179 	.db #0x7f	; 127
      000F92 7F                    7180 	.db #0x7f	; 127
      000F93 7F                    7181 	.db #0x7f	; 127
      000F94 7F                    7182 	.db #0x7f	; 127
      000F95 7F                    7183 	.db #0x7f	; 127
      000F96 7F                    7184 	.db #0x7f	; 127
      000F97 7F                    7185 	.db #0x7f	; 127
      000F98 7F                    7186 	.db #0x7f	; 127
      000F99 7F                    7187 	.db #0x7f	; 127
      000F9A 7F                    7188 	.db #0x7f	; 127
      000F9B 7F                    7189 	.db #0x7f	; 127
      000F9C 7F                    7190 	.db #0x7f	; 127
      000F9D 7F                    7191 	.db #0x7f	; 127
      000F9E 7F                    7192 	.db #0x7f	; 127
      000F9F 7F                    7193 	.db #0x7f	; 127
      000FA0 7F                    7194 	.db #0x7f	; 127
      000FA1 7F                    7195 	.db #0x7f	; 127
      000FA2 7F                    7196 	.db #0x7f	; 127
      000FA3 7F                    7197 	.db #0x7f	; 127
      000FA4 7F                    7198 	.db #0x7f	; 127
      000FA5 7F                    7199 	.db #0x7f	; 127
      000FA6 7F                    7200 	.db #0x7f	; 127
      000FA7 7F                    7201 	.db #0x7f	; 127
      000FA8 7F                    7202 	.db #0x7f	; 127
      000FA9 7F                    7203 	.db #0x7f	; 127
      000FAA 7F                    7204 	.db #0x7f	; 127
      000FAB 7F                    7205 	.db #0x7f	; 127
      000FAC 7F                    7206 	.db #0x7f	; 127
      000FAD 7F                    7207 	.db #0x7f	; 127
      000FAE 7F                    7208 	.db #0x7f	; 127
      000FAF 7F                    7209 	.db #0x7f	; 127
      000FB0 7F                    7210 	.db #0x7f	; 127
      000FB1 7F                    7211 	.db #0x7f	; 127
      000FB2 7F                    7212 	.db #0x7f	; 127
      000FB3 7F                    7213 	.db #0x7f	; 127
      000FB4 7F                    7214 	.db #0x7f	; 127
      000FB5 7F                    7215 	.db #0x7f	; 127
      000FB6 7F                    7216 	.db #0x7f	; 127
      000FB7 7F                    7217 	.db #0x7f	; 127
      000FB8 7F                    7218 	.db #0x7f	; 127
      000FB9 7F                    7219 	.db #0x7f	; 127
      000FBA 7F                    7220 	.db #0x7f	; 127
      000FBB 7F                    7221 	.db #0x7f	; 127
      000FBC 7F                    7222 	.db #0x7f	; 127
      000FBD 7F                    7223 	.db #0x7f	; 127
      000FBE 7F                    7224 	.db #0x7f	; 127
      000FBF 7F                    7225 	.db #0x7f	; 127
      000FC0 7F                    7226 	.db #0x7f	; 127
      000FC1 7F                    7227 	.db #0x7f	; 127
      000FC2 7F                    7228 	.db #0x7f	; 127
      000FC3 7F                    7229 	.db #0x7f	; 127
      000FC4 7F                    7230 	.db #0x7f	; 127
      000FC5 7F                    7231 	.db #0x7f	; 127
      000FC6 7F                    7232 	.db #0x7f	; 127
      000FC7 7F                    7233 	.db #0x7f	; 127
      000FC8 7F                    7234 	.db #0x7f	; 127
      000FC9 7F                    7235 	.db #0x7f	; 127
      000FCA 7F                    7236 	.db #0x7f	; 127
      000FCB 7F                    7237 	.db #0x7f	; 127
      000FCC 7F                    7238 	.db #0x7f	; 127
      000FCD 7F                    7239 	.db #0x7f	; 127
      000FCE 7F                    7240 	.db #0x7f	; 127
      000FCF 7F                    7241 	.db #0x7f	; 127
      000FD0 7F                    7242 	.db #0x7f	; 127
      000FD1 7F                    7243 	.db #0x7f	; 127
      000FD2 7F                    7244 	.db #0x7f	; 127
      000FD3 7F                    7245 	.db #0x7f	; 127
      000FD4 7F                    7246 	.db #0x7f	; 127
      000FD5 7F                    7247 	.db #0x7f	; 127
      000FD6 7F                    7248 	.db #0x7f	; 127
      000FD7 7F                    7249 	.db #0x7f	; 127
      000FD8 7F                    7250 	.db #0x7f	; 127
      000FD9 7F                    7251 	.db #0x7f	; 127
      000FDA 7F                    7252 	.db #0x7f	; 127
      000FDB 7F                    7253 	.db #0x7f	; 127
      000FDC 7F                    7254 	.db #0x7f	; 127
      000FDD 7F                    7255 	.db #0x7f	; 127
      000FDE 7F                    7256 	.db #0x7f	; 127
      000FDF 7F                    7257 	.db #0x7f	; 127
      000FE0 7F                    7258 	.db #0x7f	; 127
      000FE1 7F                    7259 	.db #0x7f	; 127
      000FE2 7F                    7260 	.db #0x7f	; 127
      000FE3 7F                    7261 	.db #0x7f	; 127
      000FE4 7F                    7262 	.db #0x7f	; 127
      000FE5 7F                    7263 	.db #0x7f	; 127
      000FE6 7F                    7264 	.db #0x7f	; 127
      000FE7 7F                    7265 	.db #0x7f	; 127
      000FE8 7F                    7266 	.db #0x7f	; 127
      000FE9 7F                    7267 	.db #0x7f	; 127
      000FEA 7F                    7268 	.db #0x7f	; 127
      000FEB 7F                    7269 	.db #0x7f	; 127
      000FEC 7F                    7270 	.db #0x7f	; 127
      000FED 7F                    7271 	.db #0x7f	; 127
      000FEE 7F                    7272 	.db #0x7f	; 127
      000FEF 7F                    7273 	.db #0x7f	; 127
      000FF0 7F                    7274 	.db #0x7f	; 127
      000FF1 7F                    7275 	.db #0x7f	; 127
      000FF2 7F                    7276 	.db #0x7f	; 127
      000FF3 7F                    7277 	.db #0x7f	; 127
      000FF4 7F                    7278 	.db #0x7f	; 127
      000FF5 7F                    7279 	.db #0x7f	; 127
      000FF6 7F                    7280 	.db #0x7f	; 127
      000FF7 7F                    7281 	.db #0x7f	; 127
      000FF8 7F                    7282 	.db #0x7f	; 127
      000FF9 7F                    7283 	.db #0x7f	; 127
      000FFA 7F                    7284 	.db #0x7f	; 127
      000FFB 7F                    7285 	.db #0x7f	; 127
      000FFC 7F                    7286 	.db #0x7f	; 127
      000FFD 7F                    7287 	.db #0x7f	; 127
      000FFE 7F                    7288 	.db #0x7f	; 127
      000FFF 7F                    7289 	.db #0x7f	; 127
      001000 7F                    7290 	.db #0x7f	; 127
      001001 7F                    7291 	.db #0x7f	; 127
      001002 7F                    7292 	.db #0x7f	; 127
      001003 7F                    7293 	.db #0x7f	; 127
      001004 7F                    7294 	.db #0x7f	; 127
      001005 7F                    7295 	.db #0x7f	; 127
      001006 7F                    7296 	.db #0x7f	; 127
      001007 7F                    7297 	.db #0x7f	; 127
      001008 7F                    7298 	.db #0x7f	; 127
      001009 7F                    7299 	.db #0x7f	; 127
      00100A 7F                    7300 	.db #0x7f	; 127
      00100B 7F                    7301 	.db #0x7f	; 127
      00100C 7F                    7302 	.db #0x7f	; 127
      00100D 7F                    7303 	.db #0x7f	; 127
      00100E 7F                    7304 	.db #0x7f	; 127
      00100F 7F                    7305 	.db #0x7f	; 127
      001010 7F                    7306 	.db #0x7f	; 127
      001011 7F                    7307 	.db #0x7f	; 127
      001012 7F                    7308 	.db #0x7f	; 127
      001013 7F                    7309 	.db #0x7f	; 127
      001014 7F                    7310 	.db #0x7f	; 127
      001015 7F                    7311 	.db #0x7f	; 127
      001016 7F                    7312 	.db #0x7f	; 127
      001017 7F                    7313 	.db #0x7f	; 127
      001018 7F                    7314 	.db #0x7f	; 127
      001019 7F                    7315 	.db #0x7f	; 127
      00101A 7F                    7316 	.db #0x7f	; 127
      00101B 7F                    7317 	.db #0x7f	; 127
      00101C 7F                    7318 	.db #0x7f	; 127
      00101D 7F                    7319 	.db #0x7f	; 127
      00101E 7F                    7320 	.db #0x7f	; 127
      00101F 7F                    7321 	.db #0x7f	; 127
      001020 7F                    7322 	.db #0x7f	; 127
      001021 7F                    7323 	.db #0x7f	; 127
      001022 7F                    7324 	.db #0x7f	; 127
      001023 7F                    7325 	.db #0x7f	; 127
      001024 7F                    7326 	.db #0x7f	; 127
      001025 7F                    7327 	.db #0x7f	; 127
      001026 7F                    7328 	.db #0x7f	; 127
      001027 7F                    7329 	.db #0x7f	; 127
      001028 7F                    7330 	.db #0x7f	; 127
      001029 7F                    7331 	.db #0x7f	; 127
      00102A 7F                    7332 	.db #0x7f	; 127
      00102B 7F                    7333 	.db #0x7f	; 127
      00102C 7F                    7334 	.db #0x7f	; 127
      00102D 7F                    7335 	.db #0x7f	; 127
      00102E 7F                    7336 	.db #0x7f	; 127
      00102F 7F                    7337 	.db #0x7f	; 127
      001030 7F                    7338 	.db #0x7f	; 127
      001031 7F                    7339 	.db #0x7f	; 127
      001032 7F                    7340 	.db #0x7f	; 127
      001033 7F                    7341 	.db #0x7f	; 127
      001034 7F                    7342 	.db #0x7f	; 127
      001035 7F                    7343 	.db #0x7f	; 127
      001036 7F                    7344 	.db #0x7f	; 127
      001037 7F                    7345 	.db #0x7f	; 127
      001038 7F                    7346 	.db #0x7f	; 127
      001039 7F                    7347 	.db #0x7f	; 127
      00103A 7F                    7348 	.db #0x7f	; 127
      00103B 7F                    7349 	.db #0x7f	; 127
      00103C 7F                    7350 	.db #0x7f	; 127
      00103D 7F                    7351 	.db #0x7f	; 127
      00103E 7F                    7352 	.db #0x7f	; 127
      00103F 7F                    7353 	.db #0x7f	; 127
      001040 7F                    7354 	.db #0x7f	; 127
      001041 7F                    7355 	.db #0x7f	; 127
      001042 7F                    7356 	.db #0x7f	; 127
      001043 7F                    7357 	.db #0x7f	; 127
      001044 7F                    7358 	.db #0x7f	; 127
      001045 7F                    7359 	.db #0x7f	; 127
      001046 7F                    7360 	.db #0x7f	; 127
      001047 7F                    7361 	.db #0x7f	; 127
      001048 7F                    7362 	.db #0x7f	; 127
      001049 7F                    7363 	.db #0x7f	; 127
      00104A 7F                    7364 	.db #0x7f	; 127
      00104B 7F                    7365 	.db #0x7f	; 127
      00104C 7F                    7366 	.db #0x7f	; 127
      00104D 7F                    7367 	.db #0x7f	; 127
      00104E 7F                    7368 	.db #0x7f	; 127
      00104F 7F                    7369 	.db #0x7f	; 127
      001050 7F                    7370 	.db #0x7f	; 127
      001051 7F                    7371 	.db #0x7f	; 127
      001052 7F                    7372 	.db #0x7f	; 127
      001053 7F                    7373 	.db #0x7f	; 127
      001054 7F                    7374 	.db #0x7f	; 127
      001055 7F                    7375 	.db #0x7f	; 127
      001056 7F                    7376 	.db #0x7f	; 127
      001057 7F                    7377 	.db #0x7f	; 127
      001058 7F                    7378 	.db #0x7f	; 127
      001059 7F                    7379 	.db #0x7f	; 127
      00105A 7F                    7380 	.db #0x7f	; 127
      00105B 7F                    7381 	.db #0x7f	; 127
      00105C 7F                    7382 	.db #0x7f	; 127
      00105D 7F                    7383 	.db #0x7f	; 127
      00105E 7F                    7384 	.db #0x7f	; 127
      00105F 7F                    7385 	.db #0x7f	; 127
      001060 7F                    7386 	.db #0x7f	; 127
      001061 7F                    7387 	.db #0x7f	; 127
      001062 7F                    7388 	.db #0x7f	; 127
      001063 7F                    7389 	.db #0x7f	; 127
      001064 7F                    7390 	.db #0x7f	; 127
      001065 7F                    7391 	.db #0x7f	; 127
      001066 7F                    7392 	.db #0x7f	; 127
      001067 7F                    7393 	.db #0x7f	; 127
      001068 7F                    7394 	.db #0x7f	; 127
      001069 7F                    7395 	.db #0x7f	; 127
      00106A 7F                    7396 	.db #0x7f	; 127
      00106B 7F                    7397 	.db #0x7f	; 127
      00106C 7F                    7398 	.db #0x7f	; 127
      00106D 7F                    7399 	.db #0x7f	; 127
      00106E 7F                    7400 	.db #0x7f	; 127
      00106F 7F                    7401 	.db #0x7f	; 127
      001070 7F                    7402 	.db #0x7f	; 127
      001071 7F                    7403 	.db #0x7f	; 127
      001072 7F                    7404 	.db #0x7f	; 127
      001073 7F                    7405 	.db #0x7f	; 127
      001074 7F                    7406 	.db #0x7f	; 127
      001075 7F                    7407 	.db #0x7f	; 127
      001076 7F                    7408 	.db #0x7f	; 127
      001077 7F                    7409 	.db #0x7f	; 127
      001078 7F                    7410 	.db #0x7f	; 127
      001079 7F                    7411 	.db #0x7f	; 127
      00107A 7F                    7412 	.db #0x7f	; 127
      00107B 7F                    7413 	.db #0x7f	; 127
      00107C 7F                    7414 	.db #0x7f	; 127
      00107D 7F                    7415 	.db #0x7f	; 127
      00107E 7F                    7416 	.db #0x7f	; 127
      00107F 7F                    7417 	.db #0x7f	; 127
      001080 7F                    7418 	.db #0x7f	; 127
      001081 7F                    7419 	.db #0x7f	; 127
      001082 7F                    7420 	.db #0x7f	; 127
      001083 7F                    7421 	.db #0x7f	; 127
      001084 7F                    7422 	.db #0x7f	; 127
      001085 7F                    7423 	.db #0x7f	; 127
      001086 7F                    7424 	.db #0x7f	; 127
      001087 7F                    7425 	.db #0x7f	; 127
      001088 7F                    7426 	.db #0x7f	; 127
      001089 7F                    7427 	.db #0x7f	; 127
      00108A 7F                    7428 	.db #0x7f	; 127
      00108B 7F                    7429 	.db #0x7f	; 127
      00108C 7F                    7430 	.db #0x7f	; 127
      00108D 7F                    7431 	.db #0x7f	; 127
      00108E 7F                    7432 	.db #0x7f	; 127
      00108F 7F                    7433 	.db #0x7f	; 127
      001090 7F                    7434 	.db #0x7f	; 127
      001091 7F                    7435 	.db #0x7f	; 127
      001092 7F                    7436 	.db #0x7f	; 127
      001093 7F                    7437 	.db #0x7f	; 127
      001094 7F                    7438 	.db #0x7f	; 127
      001095 7F                    7439 	.db #0x7f	; 127
      001096 7F                    7440 	.db #0x7f	; 127
      001097 7F                    7441 	.db #0x7f	; 127
      001098 7F                    7442 	.db #0x7f	; 127
      001099 7F                    7443 	.db #0x7f	; 127
      00109A 7F                    7444 	.db #0x7f	; 127
      00109B 7F                    7445 	.db #0x7f	; 127
      00109C 7F                    7446 	.db #0x7f	; 127
      00109D 7F                    7447 	.db #0x7f	; 127
      00109E 7F                    7448 	.db #0x7f	; 127
      00109F 7F                    7449 	.db #0x7f	; 127
      0010A0 7F                    7450 	.db #0x7f	; 127
      0010A1 7F                    7451 	.db #0x7f	; 127
      0010A2 7F                    7452 	.db #0x7f	; 127
      0010A3 7F                    7453 	.db #0x7f	; 127
      0010A4 7F                    7454 	.db #0x7f	; 127
      0010A5 7F                    7455 	.db #0x7f	; 127
      0010A6 7F                    7456 	.db #0x7f	; 127
      0010A7 7F                    7457 	.db #0x7f	; 127
      0010A8 7F                    7458 	.db #0x7f	; 127
      0010A9 7F                    7459 	.db #0x7f	; 127
      0010AA 7F                    7460 	.db #0x7f	; 127
      0010AB 7F                    7461 	.db #0x7f	; 127
      0010AC 7F                    7462 	.db #0x7f	; 127
      0010AD 7F                    7463 	.db #0x7f	; 127
      0010AE 7F                    7464 	.db #0x7f	; 127
      0010AF 7F                    7465 	.db #0x7f	; 127
      0010B0 7F                    7466 	.db #0x7f	; 127
      0010B1 7F                    7467 	.db #0x7f	; 127
      0010B2 7F                    7468 	.db #0x7f	; 127
      0010B3 7F                    7469 	.db #0x7f	; 127
      0010B4 7F                    7470 	.db #0x7f	; 127
      0010B5 7F                    7471 	.db #0x7f	; 127
      0010B6 7F                    7472 	.db #0x7f	; 127
      0010B7 7F                    7473 	.db #0x7f	; 127
      0010B8 7F                    7474 	.db #0x7f	; 127
      0010B9 7F                    7475 	.db #0x7f	; 127
      0010BA 7F                    7476 	.db #0x7f	; 127
      0010BB                       7477 __xinit__LevelOneTutorialMap:
      0010BB 1A                    7478 	.db #0x1a	; 26
      0010BC 0C                    7479 	.db #0x0c	; 12
      0010BD 0E                    7480 	.db #0x0e	; 14
      0010BE 15                    7481 	.db #0x15	; 21
      0010BF 04                    7482 	.db #0x04	; 4
      0010C0 7F                    7483 	.db #0x7f	; 127
      0010C1 7F                    7484 	.db #0x7f	; 127
      0010C2 7F                    7485 	.db #0x7f	; 127
      0010C3 7F                    7486 	.db #0x7f	; 127
      0010C4 7F                    7487 	.db #0x7f	; 127
      0010C5 7F                    7488 	.db #0x7f	; 127
      0010C6 7F                    7489 	.db #0x7f	; 127
      0010C7 7F                    7490 	.db #0x7f	; 127
      0010C8 7F                    7491 	.db #0x7f	; 127
      0010C9 7F                    7492 	.db #0x7f	; 127
      0010CA 7F                    7493 	.db #0x7f	; 127
      0010CB 12                    7494 	.db #0x12	; 18
      0010CC 0D                    7495 	.db #0x0d	; 13
      0010CD 04                    7496 	.db #0x04	; 4
      0010CE 00                    7497 	.db #0x00	; 0
      0010CF 0A                    7498 	.db #0x0a	; 10
      0010D0 7F                    7499 	.db #0x7f	; 127
      0010D1 08                    7500 	.db #0x08	; 8
      0010D2 0D                    7501 	.db #0x0d	; 13
      0010D3                       7502 __xinit__GameOverMap:
      0010D3 06                    7503 	.db #0x06	; 6
      0010D4 00                    7504 	.db #0x00	; 0
      0010D5 0C                    7505 	.db #0x0c	; 12
      0010D6 04                    7506 	.db #0x04	; 4
      0010D7 7F                    7507 	.db #0x7f	; 127
      0010D8 0E                    7508 	.db #0x0e	; 14
      0010D9 15                    7509 	.db #0x15	; 21
      0010DA 04                    7510 	.db #0x04	; 4
      0010DB 11                    7511 	.db #0x11	; 17
      0010DC                       7512 __xinit__LevelTwoStartMap:
      0010DC 0B                    7513 	.db #0x0b	; 11
      0010DD 04                    7514 	.db #0x04	; 4
      0010DE 15                    7515 	.db #0x15	; 21
      0010DF 04                    7516 	.db #0x04	; 4
      0010E0 0B                    7517 	.db #0x0b	; 11
      0010E1 7F                    7518 	.db #0x7f	; 127
      0010E2 13                    7519 	.db #0x13	; 19
      0010E3 16                    7520 	.db #0x16	; 22
      0010E4 0E                    7521 	.db #0x0e	; 14
      0010E5 03                    7522 	.db #0x03	; 3
      0010E6 00                    7523 	.db #0x00	; 0
      0010E7 0D                    7524 	.db #0x0d	; 13
      0010E8 02                    7525 	.db #0x02	; 2
      0010E9 04                    7526 	.db #0x04	; 4
      0010EA 7F                    7527 	.db #0x7f	; 127
      0010EB 0E                    7528 	.db #0x0e	; 14
      0010EC 05                    7529 	.db #0x05	; 5
      0010ED 05                    7530 	.db #0x05	; 5
      0010EE                       7531 __xinit__LevelTwoMapA:
      0010EE 22                    7532 	.db #0x22	; 34
      0010EF 22                    7533 	.db #0x22	; 34
      0010F0 22                    7534 	.db #0x22	; 34
      0010F1 22                    7535 	.db #0x22	; 34
      0010F2 22                    7536 	.db #0x22	; 34
      0010F3 22                    7537 	.db #0x22	; 34
      0010F4 22                    7538 	.db #0x22	; 34
      0010F5 22                    7539 	.db #0x22	; 34
      0010F6 22                    7540 	.db #0x22	; 34
      0010F7 22                    7541 	.db #0x22	; 34
      0010F8 22                    7542 	.db #0x22	; 34
      0010F9 22                    7543 	.db #0x22	; 34
      0010FA 22                    7544 	.db #0x22	; 34
      0010FB 22                    7545 	.db #0x22	; 34
      0010FC 22                    7546 	.db #0x22	; 34
      0010FD 22                    7547 	.db #0x22	; 34
      0010FE 22                    7548 	.db #0x22	; 34
      0010FF 22                    7549 	.db #0x22	; 34
      001100 22                    7550 	.db #0x22	; 34
      001101 22                    7551 	.db #0x22	; 34
      001102 2E                    7552 	.db #0x2e	; 46
      001103 41                    7553 	.db #0x41	; 65	'A'
      001104 41                    7554 	.db #0x41	; 65	'A'
      001105 41                    7555 	.db #0x41	; 65	'A'
      001106 41                    7556 	.db #0x41	; 65	'A'
      001107 41                    7557 	.db #0x41	; 65	'A'
      001108 41                    7558 	.db #0x41	; 65	'A'
      001109 41                    7559 	.db #0x41	; 65	'A'
      00110A 41                    7560 	.db #0x41	; 65	'A'
      00110B 41                    7561 	.db #0x41	; 65	'A'
      00110C 41                    7562 	.db #0x41	; 65	'A'
      00110D 41                    7563 	.db #0x41	; 65	'A'
      00110E 41                    7564 	.db #0x41	; 65	'A'
      00110F 41                    7565 	.db #0x41	; 65	'A'
      001110 41                    7566 	.db #0x41	; 65	'A'
      001111 41                    7567 	.db #0x41	; 65	'A'
      001112 41                    7568 	.db #0x41	; 65	'A'
      001113 41                    7569 	.db #0x41	; 65	'A'
      001114 41                    7570 	.db #0x41	; 65	'A'
      001115 2E                    7571 	.db #0x2e	; 46
      001116 2E                    7572 	.db #0x2e	; 46
      001117 41                    7573 	.db #0x41	; 65	'A'
      001118 41                    7574 	.db #0x41	; 65	'A'
      001119 41                    7575 	.db #0x41	; 65	'A'
      00111A 41                    7576 	.db #0x41	; 65	'A'
      00111B 41                    7577 	.db #0x41	; 65	'A'
      00111C 41                    7578 	.db #0x41	; 65	'A'
      00111D 41                    7579 	.db #0x41	; 65	'A'
      00111E 41                    7580 	.db #0x41	; 65	'A'
      00111F 41                    7581 	.db #0x41	; 65	'A'
      001120 41                    7582 	.db #0x41	; 65	'A'
      001121 41                    7583 	.db #0x41	; 65	'A'
      001122 41                    7584 	.db #0x41	; 65	'A'
      001123 41                    7585 	.db #0x41	; 65	'A'
      001124 41                    7586 	.db #0x41	; 65	'A'
      001125 41                    7587 	.db #0x41	; 65	'A'
      001126 41                    7588 	.db #0x41	; 65	'A'
      001127 41                    7589 	.db #0x41	; 65	'A'
      001128 41                    7590 	.db #0x41	; 65	'A'
      001129 2E                    7591 	.db #0x2e	; 46
      00112A 2E                    7592 	.db #0x2e	; 46
      00112B 41                    7593 	.db #0x41	; 65	'A'
      00112C 41                    7594 	.db #0x41	; 65	'A'
      00112D 41                    7595 	.db #0x41	; 65	'A'
      00112E 41                    7596 	.db #0x41	; 65	'A'
      00112F 41                    7597 	.db #0x41	; 65	'A'
      001130 41                    7598 	.db #0x41	; 65	'A'
      001131 41                    7599 	.db #0x41	; 65	'A'
      001132 41                    7600 	.db #0x41	; 65	'A'
      001133 41                    7601 	.db #0x41	; 65	'A'
      001134 41                    7602 	.db #0x41	; 65	'A'
      001135 41                    7603 	.db #0x41	; 65	'A'
      001136 41                    7604 	.db #0x41	; 65	'A'
      001137 41                    7605 	.db #0x41	; 65	'A'
      001138 41                    7606 	.db #0x41	; 65	'A'
      001139 41                    7607 	.db #0x41	; 65	'A'
      00113A 41                    7608 	.db #0x41	; 65	'A'
      00113B 41                    7609 	.db #0x41	; 65	'A'
      00113C 41                    7610 	.db #0x41	; 65	'A'
      00113D 2E                    7611 	.db #0x2e	; 46
      00113E 2E                    7612 	.db #0x2e	; 46
      00113F 41                    7613 	.db #0x41	; 65	'A'
      001140 41                    7614 	.db #0x41	; 65	'A'
      001141 41                    7615 	.db #0x41	; 65	'A'
      001142 41                    7616 	.db #0x41	; 65	'A'
      001143 41                    7617 	.db #0x41	; 65	'A'
      001144 41                    7618 	.db #0x41	; 65	'A'
      001145 41                    7619 	.db #0x41	; 65	'A'
      001146 41                    7620 	.db #0x41	; 65	'A'
      001147 41                    7621 	.db #0x41	; 65	'A'
      001148 41                    7622 	.db #0x41	; 65	'A'
      001149 41                    7623 	.db #0x41	; 65	'A'
      00114A 41                    7624 	.db #0x41	; 65	'A'
      00114B 41                    7625 	.db #0x41	; 65	'A'
      00114C 41                    7626 	.db #0x41	; 65	'A'
      00114D 41                    7627 	.db #0x41	; 65	'A'
      00114E 41                    7628 	.db #0x41	; 65	'A'
      00114F 41                    7629 	.db #0x41	; 65	'A'
      001150 41                    7630 	.db #0x41	; 65	'A'
      001151 2E                    7631 	.db #0x2e	; 46
      001152 2E                    7632 	.db #0x2e	; 46
      001153 41                    7633 	.db #0x41	; 65	'A'
      001154 41                    7634 	.db #0x41	; 65	'A'
      001155 41                    7635 	.db #0x41	; 65	'A'
      001156 41                    7636 	.db #0x41	; 65	'A'
      001157 41                    7637 	.db #0x41	; 65	'A'
      001158 41                    7638 	.db #0x41	; 65	'A'
      001159 41                    7639 	.db #0x41	; 65	'A'
      00115A 41                    7640 	.db #0x41	; 65	'A'
      00115B 41                    7641 	.db #0x41	; 65	'A'
      00115C 41                    7642 	.db #0x41	; 65	'A'
      00115D 41                    7643 	.db #0x41	; 65	'A'
      00115E 41                    7644 	.db #0x41	; 65	'A'
      00115F 41                    7645 	.db #0x41	; 65	'A'
      001160 41                    7646 	.db #0x41	; 65	'A'
      001161 41                    7647 	.db #0x41	; 65	'A'
      001162 41                    7648 	.db #0x41	; 65	'A'
      001163 41                    7649 	.db #0x41	; 65	'A'
      001164 41                    7650 	.db #0x41	; 65	'A'
      001165 2E                    7651 	.db #0x2e	; 46
      001166 2E                    7652 	.db #0x2e	; 46
      001167 41                    7653 	.db #0x41	; 65	'A'
      001168 41                    7654 	.db #0x41	; 65	'A'
      001169 41                    7655 	.db #0x41	; 65	'A'
      00116A 41                    7656 	.db #0x41	; 65	'A'
      00116B 41                    7657 	.db #0x41	; 65	'A'
      00116C 41                    7658 	.db #0x41	; 65	'A'
      00116D 41                    7659 	.db #0x41	; 65	'A'
      00116E 41                    7660 	.db #0x41	; 65	'A'
      00116F 41                    7661 	.db #0x41	; 65	'A'
      001170 41                    7662 	.db #0x41	; 65	'A'
      001171 41                    7663 	.db #0x41	; 65	'A'
      001172 41                    7664 	.db #0x41	; 65	'A'
      001173 41                    7665 	.db #0x41	; 65	'A'
      001174 41                    7666 	.db #0x41	; 65	'A'
      001175 41                    7667 	.db #0x41	; 65	'A'
      001176 41                    7668 	.db #0x41	; 65	'A'
      001177 41                    7669 	.db #0x41	; 65	'A'
      001178 41                    7670 	.db #0x41	; 65	'A'
      001179 2E                    7671 	.db #0x2e	; 46
      00117A 2E                    7672 	.db #0x2e	; 46
      00117B 41                    7673 	.db #0x41	; 65	'A'
      00117C 41                    7674 	.db #0x41	; 65	'A'
      00117D 41                    7675 	.db #0x41	; 65	'A'
      00117E 41                    7676 	.db #0x41	; 65	'A'
      00117F 41                    7677 	.db #0x41	; 65	'A'
      001180 41                    7678 	.db #0x41	; 65	'A'
      001181 41                    7679 	.db #0x41	; 65	'A'
      001182 41                    7680 	.db #0x41	; 65	'A'
      001183 41                    7681 	.db #0x41	; 65	'A'
      001184 41                    7682 	.db #0x41	; 65	'A'
      001185 41                    7683 	.db #0x41	; 65	'A'
      001186 41                    7684 	.db #0x41	; 65	'A'
      001187 41                    7685 	.db #0x41	; 65	'A'
      001188 41                    7686 	.db #0x41	; 65	'A'
      001189 41                    7687 	.db #0x41	; 65	'A'
      00118A 41                    7688 	.db #0x41	; 65	'A'
      00118B 41                    7689 	.db #0x41	; 65	'A'
      00118C 41                    7690 	.db #0x41	; 65	'A'
      00118D 2E                    7691 	.db #0x2e	; 46
      00118E 2E                    7692 	.db #0x2e	; 46
      00118F 41                    7693 	.db #0x41	; 65	'A'
      001190 41                    7694 	.db #0x41	; 65	'A'
      001191 41                    7695 	.db #0x41	; 65	'A'
      001192 41                    7696 	.db #0x41	; 65	'A'
      001193 41                    7697 	.db #0x41	; 65	'A'
      001194 41                    7698 	.db #0x41	; 65	'A'
      001195 41                    7699 	.db #0x41	; 65	'A'
      001196 41                    7700 	.db #0x41	; 65	'A'
      001197 41                    7701 	.db #0x41	; 65	'A'
      001198 41                    7702 	.db #0x41	; 65	'A'
      001199 41                    7703 	.db #0x41	; 65	'A'
      00119A 41                    7704 	.db #0x41	; 65	'A'
      00119B 41                    7705 	.db #0x41	; 65	'A'
      00119C 41                    7706 	.db #0x41	; 65	'A'
      00119D 41                    7707 	.db #0x41	; 65	'A'
      00119E 41                    7708 	.db #0x41	; 65	'A'
      00119F 41                    7709 	.db #0x41	; 65	'A'
      0011A0 41                    7710 	.db #0x41	; 65	'A'
      0011A1 2E                    7711 	.db #0x2e	; 46
      0011A2 2E                    7712 	.db #0x2e	; 46
      0011A3 41                    7713 	.db #0x41	; 65	'A'
      0011A4 41                    7714 	.db #0x41	; 65	'A'
      0011A5 41                    7715 	.db #0x41	; 65	'A'
      0011A6 41                    7716 	.db #0x41	; 65	'A'
      0011A7 41                    7717 	.db #0x41	; 65	'A'
      0011A8 41                    7718 	.db #0x41	; 65	'A'
      0011A9 41                    7719 	.db #0x41	; 65	'A'
      0011AA 41                    7720 	.db #0x41	; 65	'A'
      0011AB 41                    7721 	.db #0x41	; 65	'A'
      0011AC 41                    7722 	.db #0x41	; 65	'A'
      0011AD 41                    7723 	.db #0x41	; 65	'A'
      0011AE 41                    7724 	.db #0x41	; 65	'A'
      0011AF 41                    7725 	.db #0x41	; 65	'A'
      0011B0 41                    7726 	.db #0x41	; 65	'A'
      0011B1 41                    7727 	.db #0x41	; 65	'A'
      0011B2 41                    7728 	.db #0x41	; 65	'A'
      0011B3 41                    7729 	.db #0x41	; 65	'A'
      0011B4 41                    7730 	.db #0x41	; 65	'A'
      0011B5 2E                    7731 	.db #0x2e	; 46
      0011B6 2E                    7732 	.db #0x2e	; 46
      0011B7 41                    7733 	.db #0x41	; 65	'A'
      0011B8 41                    7734 	.db #0x41	; 65	'A'
      0011B9 41                    7735 	.db #0x41	; 65	'A'
      0011BA 41                    7736 	.db #0x41	; 65	'A'
      0011BB 41                    7737 	.db #0x41	; 65	'A'
      0011BC 41                    7738 	.db #0x41	; 65	'A'
      0011BD 41                    7739 	.db #0x41	; 65	'A'
      0011BE 41                    7740 	.db #0x41	; 65	'A'
      0011BF 41                    7741 	.db #0x41	; 65	'A'
      0011C0 41                    7742 	.db #0x41	; 65	'A'
      0011C1 41                    7743 	.db #0x41	; 65	'A'
      0011C2 41                    7744 	.db #0x41	; 65	'A'
      0011C3 41                    7745 	.db #0x41	; 65	'A'
      0011C4 41                    7746 	.db #0x41	; 65	'A'
      0011C5 41                    7747 	.db #0x41	; 65	'A'
      0011C6 41                    7748 	.db #0x41	; 65	'A'
      0011C7 41                    7749 	.db #0x41	; 65	'A'
      0011C8 41                    7750 	.db #0x41	; 65	'A'
      0011C9 2E                    7751 	.db #0x2e	; 46
      0011CA 2E                    7752 	.db #0x2e	; 46
      0011CB 41                    7753 	.db #0x41	; 65	'A'
      0011CC 41                    7754 	.db #0x41	; 65	'A'
      0011CD 41                    7755 	.db #0x41	; 65	'A'
      0011CE 41                    7756 	.db #0x41	; 65	'A'
      0011CF 41                    7757 	.db #0x41	; 65	'A'
      0011D0 41                    7758 	.db #0x41	; 65	'A'
      0011D1 41                    7759 	.db #0x41	; 65	'A'
      0011D2 41                    7760 	.db #0x41	; 65	'A'
      0011D3 41                    7761 	.db #0x41	; 65	'A'
      0011D4 41                    7762 	.db #0x41	; 65	'A'
      0011D5 41                    7763 	.db #0x41	; 65	'A'
      0011D6 41                    7764 	.db #0x41	; 65	'A'
      0011D7 41                    7765 	.db #0x41	; 65	'A'
      0011D8 41                    7766 	.db #0x41	; 65	'A'
      0011D9 41                    7767 	.db #0x41	; 65	'A'
      0011DA 41                    7768 	.db #0x41	; 65	'A'
      0011DB 41                    7769 	.db #0x41	; 65	'A'
      0011DC 41                    7770 	.db #0x41	; 65	'A'
      0011DD 2E                    7771 	.db #0x2e	; 46
      0011DE 2E                    7772 	.db #0x2e	; 46
      0011DF 41                    7773 	.db #0x41	; 65	'A'
      0011E0 41                    7774 	.db #0x41	; 65	'A'
      0011E1 41                    7775 	.db #0x41	; 65	'A'
      0011E2 41                    7776 	.db #0x41	; 65	'A'
      0011E3 41                    7777 	.db #0x41	; 65	'A'
      0011E4 41                    7778 	.db #0x41	; 65	'A'
      0011E5 41                    7779 	.db #0x41	; 65	'A'
      0011E6 41                    7780 	.db #0x41	; 65	'A'
      0011E7 41                    7781 	.db #0x41	; 65	'A'
      0011E8 41                    7782 	.db #0x41	; 65	'A'
      0011E9 41                    7783 	.db #0x41	; 65	'A'
      0011EA 41                    7784 	.db #0x41	; 65	'A'
      0011EB 41                    7785 	.db #0x41	; 65	'A'
      0011EC 41                    7786 	.db #0x41	; 65	'A'
      0011ED 41                    7787 	.db #0x41	; 65	'A'
      0011EE 41                    7788 	.db #0x41	; 65	'A'
      0011EF 41                    7789 	.db #0x41	; 65	'A'
      0011F0 41                    7790 	.db #0x41	; 65	'A'
      0011F1 2E                    7791 	.db #0x2e	; 46
      0011F2 2E                    7792 	.db #0x2e	; 46
      0011F3 41                    7793 	.db #0x41	; 65	'A'
      0011F4 41                    7794 	.db #0x41	; 65	'A'
      0011F5 41                    7795 	.db #0x41	; 65	'A'
      0011F6 41                    7796 	.db #0x41	; 65	'A'
      0011F7 41                    7797 	.db #0x41	; 65	'A'
      0011F8 41                    7798 	.db #0x41	; 65	'A'
      0011F9 41                    7799 	.db #0x41	; 65	'A'
      0011FA 41                    7800 	.db #0x41	; 65	'A'
      0011FB 41                    7801 	.db #0x41	; 65	'A'
      0011FC 41                    7802 	.db #0x41	; 65	'A'
      0011FD 41                    7803 	.db #0x41	; 65	'A'
      0011FE 41                    7804 	.db #0x41	; 65	'A'
      0011FF 41                    7805 	.db #0x41	; 65	'A'
      001200 41                    7806 	.db #0x41	; 65	'A'
      001201 41                    7807 	.db #0x41	; 65	'A'
      001202 41                    7808 	.db #0x41	; 65	'A'
      001203 41                    7809 	.db #0x41	; 65	'A'
      001204 41                    7810 	.db #0x41	; 65	'A'
      001205 2E                    7811 	.db #0x2e	; 46
      001206 2E                    7812 	.db #0x2e	; 46
      001207 41                    7813 	.db #0x41	; 65	'A'
      001208 41                    7814 	.db #0x41	; 65	'A'
      001209 41                    7815 	.db #0x41	; 65	'A'
      00120A 41                    7816 	.db #0x41	; 65	'A'
      00120B 41                    7817 	.db #0x41	; 65	'A'
      00120C 41                    7818 	.db #0x41	; 65	'A'
      00120D 41                    7819 	.db #0x41	; 65	'A'
      00120E 41                    7820 	.db #0x41	; 65	'A'
      00120F 41                    7821 	.db #0x41	; 65	'A'
      001210 41                    7822 	.db #0x41	; 65	'A'
      001211 41                    7823 	.db #0x41	; 65	'A'
      001212 41                    7824 	.db #0x41	; 65	'A'
      001213 41                    7825 	.db #0x41	; 65	'A'
      001214 41                    7826 	.db #0x41	; 65	'A'
      001215 41                    7827 	.db #0x41	; 65	'A'
      001216 41                    7828 	.db #0x41	; 65	'A'
      001217 41                    7829 	.db #0x41	; 65	'A'
      001218 41                    7830 	.db #0x41	; 65	'A'
      001219 2E                    7831 	.db #0x2e	; 46
      00121A 2E                    7832 	.db #0x2e	; 46
      00121B 41                    7833 	.db #0x41	; 65	'A'
      00121C 41                    7834 	.db #0x41	; 65	'A'
      00121D 41                    7835 	.db #0x41	; 65	'A'
      00121E 41                    7836 	.db #0x41	; 65	'A'
      00121F 41                    7837 	.db #0x41	; 65	'A'
      001220 41                    7838 	.db #0x41	; 65	'A'
      001221 41                    7839 	.db #0x41	; 65	'A'
      001222 41                    7840 	.db #0x41	; 65	'A'
      001223 41                    7841 	.db #0x41	; 65	'A'
      001224 41                    7842 	.db #0x41	; 65	'A'
      001225 41                    7843 	.db #0x41	; 65	'A'
      001226 41                    7844 	.db #0x41	; 65	'A'
      001227 41                    7845 	.db #0x41	; 65	'A'
      001228 41                    7846 	.db #0x41	; 65	'A'
      001229 41                    7847 	.db #0x41	; 65	'A'
      00122A 41                    7848 	.db #0x41	; 65	'A'
      00122B 41                    7849 	.db #0x41	; 65	'A'
      00122C 41                    7850 	.db #0x41	; 65	'A'
      00122D 2E                    7851 	.db #0x2e	; 46
      00122E 2E                    7852 	.db #0x2e	; 46
      00122F 41                    7853 	.db #0x41	; 65	'A'
      001230 41                    7854 	.db #0x41	; 65	'A'
      001231 41                    7855 	.db #0x41	; 65	'A'
      001232 41                    7856 	.db #0x41	; 65	'A'
      001233 41                    7857 	.db #0x41	; 65	'A'
      001234 41                    7858 	.db #0x41	; 65	'A'
      001235 41                    7859 	.db #0x41	; 65	'A'
      001236 41                    7860 	.db #0x41	; 65	'A'
      001237 41                    7861 	.db #0x41	; 65	'A'
      001238 41                    7862 	.db #0x41	; 65	'A'
      001239 41                    7863 	.db #0x41	; 65	'A'
      00123A 41                    7864 	.db #0x41	; 65	'A'
      00123B 41                    7865 	.db #0x41	; 65	'A'
      00123C 41                    7866 	.db #0x41	; 65	'A'
      00123D 41                    7867 	.db #0x41	; 65	'A'
      00123E 41                    7868 	.db #0x41	; 65	'A'
      00123F 41                    7869 	.db #0x41	; 65	'A'
      001240 41                    7870 	.db #0x41	; 65	'A'
      001241 2E                    7871 	.db #0x2e	; 46
      001242 2E                    7872 	.db #0x2e	; 46
      001243 2E                    7873 	.db #0x2e	; 46
      001244 2E                    7874 	.db #0x2e	; 46
      001245 2E                    7875 	.db #0x2e	; 46
      001246 2E                    7876 	.db #0x2e	; 46
      001247 2E                    7877 	.db #0x2e	; 46
      001248 2E                    7878 	.db #0x2e	; 46
      001249 2E                    7879 	.db #0x2e	; 46
      00124A 2E                    7880 	.db #0x2e	; 46
      00124B 2E                    7881 	.db #0x2e	; 46
      00124C 2E                    7882 	.db #0x2e	; 46
      00124D 2E                    7883 	.db #0x2e	; 46
      00124E 2E                    7884 	.db #0x2e	; 46
      00124F 2E                    7885 	.db #0x2e	; 46
      001250 2E                    7886 	.db #0x2e	; 46
      001251 2E                    7887 	.db #0x2e	; 46
      001252 2E                    7888 	.db #0x2e	; 46
      001253 2E                    7889 	.db #0x2e	; 46
      001254 2E                    7890 	.db #0x2e	; 46
      001255 2E                    7891 	.db #0x2e	; 46
      001256                       7892 __xinit__LevelTwoMapB:
      001256 22                    7893 	.db #0x22	; 34
      001257 22                    7894 	.db #0x22	; 34
      001258 22                    7895 	.db #0x22	; 34
      001259 22                    7896 	.db #0x22	; 34
      00125A 22                    7897 	.db #0x22	; 34
      00125B 22                    7898 	.db #0x22	; 34
      00125C 22                    7899 	.db #0x22	; 34
      00125D 22                    7900 	.db #0x22	; 34
      00125E 22                    7901 	.db #0x22	; 34
      00125F 22                    7902 	.db #0x22	; 34
      001260 22                    7903 	.db #0x22	; 34
      001261 22                    7904 	.db #0x22	; 34
      001262 22                    7905 	.db #0x22	; 34
      001263 22                    7906 	.db #0x22	; 34
      001264 22                    7907 	.db #0x22	; 34
      001265 22                    7908 	.db #0x22	; 34
      001266 22                    7909 	.db #0x22	; 34
      001267 22                    7910 	.db #0x22	; 34
      001268 22                    7911 	.db #0x22	; 34
      001269 22                    7912 	.db #0x22	; 34
      00126A 2E                    7913 	.db #0x2e	; 46
      00126B 42                    7914 	.db #0x42	; 66	'B'
      00126C 42                    7915 	.db #0x42	; 66	'B'
      00126D 42                    7916 	.db #0x42	; 66	'B'
      00126E 42                    7917 	.db #0x42	; 66	'B'
      00126F 42                    7918 	.db #0x42	; 66	'B'
      001270 42                    7919 	.db #0x42	; 66	'B'
      001271 42                    7920 	.db #0x42	; 66	'B'
      001272 42                    7921 	.db #0x42	; 66	'B'
      001273 42                    7922 	.db #0x42	; 66	'B'
      001274 42                    7923 	.db #0x42	; 66	'B'
      001275 42                    7924 	.db #0x42	; 66	'B'
      001276 42                    7925 	.db #0x42	; 66	'B'
      001277 42                    7926 	.db #0x42	; 66	'B'
      001278 42                    7927 	.db #0x42	; 66	'B'
      001279 42                    7928 	.db #0x42	; 66	'B'
      00127A 42                    7929 	.db #0x42	; 66	'B'
      00127B 42                    7930 	.db #0x42	; 66	'B'
      00127C 42                    7931 	.db #0x42	; 66	'B'
      00127D 2E                    7932 	.db #0x2e	; 46
      00127E 2E                    7933 	.db #0x2e	; 46
      00127F 42                    7934 	.db #0x42	; 66	'B'
      001280 42                    7935 	.db #0x42	; 66	'B'
      001281 42                    7936 	.db #0x42	; 66	'B'
      001282 42                    7937 	.db #0x42	; 66	'B'
      001283 42                    7938 	.db #0x42	; 66	'B'
      001284 42                    7939 	.db #0x42	; 66	'B'
      001285 42                    7940 	.db #0x42	; 66	'B'
      001286 42                    7941 	.db #0x42	; 66	'B'
      001287 42                    7942 	.db #0x42	; 66	'B'
      001288 42                    7943 	.db #0x42	; 66	'B'
      001289 42                    7944 	.db #0x42	; 66	'B'
      00128A 42                    7945 	.db #0x42	; 66	'B'
      00128B 42                    7946 	.db #0x42	; 66	'B'
      00128C 42                    7947 	.db #0x42	; 66	'B'
      00128D 42                    7948 	.db #0x42	; 66	'B'
      00128E 42                    7949 	.db #0x42	; 66	'B'
      00128F 42                    7950 	.db #0x42	; 66	'B'
      001290 42                    7951 	.db #0x42	; 66	'B'
      001291 2E                    7952 	.db #0x2e	; 46
      001292 2E                    7953 	.db #0x2e	; 46
      001293 42                    7954 	.db #0x42	; 66	'B'
      001294 42                    7955 	.db #0x42	; 66	'B'
      001295 42                    7956 	.db #0x42	; 66	'B'
      001296 42                    7957 	.db #0x42	; 66	'B'
      001297 42                    7958 	.db #0x42	; 66	'B'
      001298 42                    7959 	.db #0x42	; 66	'B'
      001299 42                    7960 	.db #0x42	; 66	'B'
      00129A 42                    7961 	.db #0x42	; 66	'B'
      00129B 42                    7962 	.db #0x42	; 66	'B'
      00129C 42                    7963 	.db #0x42	; 66	'B'
      00129D 42                    7964 	.db #0x42	; 66	'B'
      00129E 42                    7965 	.db #0x42	; 66	'B'
      00129F 42                    7966 	.db #0x42	; 66	'B'
      0012A0 42                    7967 	.db #0x42	; 66	'B'
      0012A1 42                    7968 	.db #0x42	; 66	'B'
      0012A2 42                    7969 	.db #0x42	; 66	'B'
      0012A3 42                    7970 	.db #0x42	; 66	'B'
      0012A4 42                    7971 	.db #0x42	; 66	'B'
      0012A5 2E                    7972 	.db #0x2e	; 46
      0012A6 2E                    7973 	.db #0x2e	; 46
      0012A7 42                    7974 	.db #0x42	; 66	'B'
      0012A8 42                    7975 	.db #0x42	; 66	'B'
      0012A9 42                    7976 	.db #0x42	; 66	'B'
      0012AA 42                    7977 	.db #0x42	; 66	'B'
      0012AB 42                    7978 	.db #0x42	; 66	'B'
      0012AC 42                    7979 	.db #0x42	; 66	'B'
      0012AD 42                    7980 	.db #0x42	; 66	'B'
      0012AE 42                    7981 	.db #0x42	; 66	'B'
      0012AF 42                    7982 	.db #0x42	; 66	'B'
      0012B0 42                    7983 	.db #0x42	; 66	'B'
      0012B1 42                    7984 	.db #0x42	; 66	'B'
      0012B2 42                    7985 	.db #0x42	; 66	'B'
      0012B3 42                    7986 	.db #0x42	; 66	'B'
      0012B4 42                    7987 	.db #0x42	; 66	'B'
      0012B5 42                    7988 	.db #0x42	; 66	'B'
      0012B6 42                    7989 	.db #0x42	; 66	'B'
      0012B7 42                    7990 	.db #0x42	; 66	'B'
      0012B8 42                    7991 	.db #0x42	; 66	'B'
      0012B9 2E                    7992 	.db #0x2e	; 46
      0012BA 2E                    7993 	.db #0x2e	; 46
      0012BB 42                    7994 	.db #0x42	; 66	'B'
      0012BC 42                    7995 	.db #0x42	; 66	'B'
      0012BD 42                    7996 	.db #0x42	; 66	'B'
      0012BE 42                    7997 	.db #0x42	; 66	'B'
      0012BF 42                    7998 	.db #0x42	; 66	'B'
      0012C0 42                    7999 	.db #0x42	; 66	'B'
      0012C1 42                    8000 	.db #0x42	; 66	'B'
      0012C2 42                    8001 	.db #0x42	; 66	'B'
      0012C3 42                    8002 	.db #0x42	; 66	'B'
      0012C4 42                    8003 	.db #0x42	; 66	'B'
      0012C5 42                    8004 	.db #0x42	; 66	'B'
      0012C6 42                    8005 	.db #0x42	; 66	'B'
      0012C7 42                    8006 	.db #0x42	; 66	'B'
      0012C8 42                    8007 	.db #0x42	; 66	'B'
      0012C9 42                    8008 	.db #0x42	; 66	'B'
      0012CA 42                    8009 	.db #0x42	; 66	'B'
      0012CB 42                    8010 	.db #0x42	; 66	'B'
      0012CC 42                    8011 	.db #0x42	; 66	'B'
      0012CD 2E                    8012 	.db #0x2e	; 46
      0012CE 2E                    8013 	.db #0x2e	; 46
      0012CF 42                    8014 	.db #0x42	; 66	'B'
      0012D0 42                    8015 	.db #0x42	; 66	'B'
      0012D1 42                    8016 	.db #0x42	; 66	'B'
      0012D2 42                    8017 	.db #0x42	; 66	'B'
      0012D3 42                    8018 	.db #0x42	; 66	'B'
      0012D4 42                    8019 	.db #0x42	; 66	'B'
      0012D5 42                    8020 	.db #0x42	; 66	'B'
      0012D6 42                    8021 	.db #0x42	; 66	'B'
      0012D7 42                    8022 	.db #0x42	; 66	'B'
      0012D8 42                    8023 	.db #0x42	; 66	'B'
      0012D9 42                    8024 	.db #0x42	; 66	'B'
      0012DA 42                    8025 	.db #0x42	; 66	'B'
      0012DB 42                    8026 	.db #0x42	; 66	'B'
      0012DC 42                    8027 	.db #0x42	; 66	'B'
      0012DD 42                    8028 	.db #0x42	; 66	'B'
      0012DE 42                    8029 	.db #0x42	; 66	'B'
      0012DF 42                    8030 	.db #0x42	; 66	'B'
      0012E0 42                    8031 	.db #0x42	; 66	'B'
      0012E1 2E                    8032 	.db #0x2e	; 46
      0012E2 2E                    8033 	.db #0x2e	; 46
      0012E3 42                    8034 	.db #0x42	; 66	'B'
      0012E4 42                    8035 	.db #0x42	; 66	'B'
      0012E5 42                    8036 	.db #0x42	; 66	'B'
      0012E6 42                    8037 	.db #0x42	; 66	'B'
      0012E7 42                    8038 	.db #0x42	; 66	'B'
      0012E8 42                    8039 	.db #0x42	; 66	'B'
      0012E9 42                    8040 	.db #0x42	; 66	'B'
      0012EA 42                    8041 	.db #0x42	; 66	'B'
      0012EB 42                    8042 	.db #0x42	; 66	'B'
      0012EC 42                    8043 	.db #0x42	; 66	'B'
      0012ED 42                    8044 	.db #0x42	; 66	'B'
      0012EE 42                    8045 	.db #0x42	; 66	'B'
      0012EF 42                    8046 	.db #0x42	; 66	'B'
      0012F0 42                    8047 	.db #0x42	; 66	'B'
      0012F1 42                    8048 	.db #0x42	; 66	'B'
      0012F2 42                    8049 	.db #0x42	; 66	'B'
      0012F3 42                    8050 	.db #0x42	; 66	'B'
      0012F4 42                    8051 	.db #0x42	; 66	'B'
      0012F5 2E                    8052 	.db #0x2e	; 46
      0012F6 2E                    8053 	.db #0x2e	; 46
      0012F7 42                    8054 	.db #0x42	; 66	'B'
      0012F8 42                    8055 	.db #0x42	; 66	'B'
      0012F9 42                    8056 	.db #0x42	; 66	'B'
      0012FA 42                    8057 	.db #0x42	; 66	'B'
      0012FB 42                    8058 	.db #0x42	; 66	'B'
      0012FC 42                    8059 	.db #0x42	; 66	'B'
      0012FD 42                    8060 	.db #0x42	; 66	'B'
      0012FE 42                    8061 	.db #0x42	; 66	'B'
      0012FF 42                    8062 	.db #0x42	; 66	'B'
      001300 42                    8063 	.db #0x42	; 66	'B'
      001301 42                    8064 	.db #0x42	; 66	'B'
      001302 42                    8065 	.db #0x42	; 66	'B'
      001303 42                    8066 	.db #0x42	; 66	'B'
      001304 42                    8067 	.db #0x42	; 66	'B'
      001305 42                    8068 	.db #0x42	; 66	'B'
      001306 42                    8069 	.db #0x42	; 66	'B'
      001307 42                    8070 	.db #0x42	; 66	'B'
      001308 42                    8071 	.db #0x42	; 66	'B'
      001309 2E                    8072 	.db #0x2e	; 46
      00130A 2E                    8073 	.db #0x2e	; 46
      00130B 42                    8074 	.db #0x42	; 66	'B'
      00130C 42                    8075 	.db #0x42	; 66	'B'
      00130D 42                    8076 	.db #0x42	; 66	'B'
      00130E 42                    8077 	.db #0x42	; 66	'B'
      00130F 42                    8078 	.db #0x42	; 66	'B'
      001310 42                    8079 	.db #0x42	; 66	'B'
      001311 42                    8080 	.db #0x42	; 66	'B'
      001312 42                    8081 	.db #0x42	; 66	'B'
      001313 42                    8082 	.db #0x42	; 66	'B'
      001314 42                    8083 	.db #0x42	; 66	'B'
      001315 42                    8084 	.db #0x42	; 66	'B'
      001316 42                    8085 	.db #0x42	; 66	'B'
      001317 42                    8086 	.db #0x42	; 66	'B'
      001318 42                    8087 	.db #0x42	; 66	'B'
      001319 42                    8088 	.db #0x42	; 66	'B'
      00131A 42                    8089 	.db #0x42	; 66	'B'
      00131B 42                    8090 	.db #0x42	; 66	'B'
      00131C 42                    8091 	.db #0x42	; 66	'B'
      00131D 2E                    8092 	.db #0x2e	; 46
      00131E 2E                    8093 	.db #0x2e	; 46
      00131F 42                    8094 	.db #0x42	; 66	'B'
      001320 42                    8095 	.db #0x42	; 66	'B'
      001321 42                    8096 	.db #0x42	; 66	'B'
      001322 42                    8097 	.db #0x42	; 66	'B'
      001323 42                    8098 	.db #0x42	; 66	'B'
      001324 42                    8099 	.db #0x42	; 66	'B'
      001325 42                    8100 	.db #0x42	; 66	'B'
      001326 42                    8101 	.db #0x42	; 66	'B'
      001327 42                    8102 	.db #0x42	; 66	'B'
      001328 42                    8103 	.db #0x42	; 66	'B'
      001329 42                    8104 	.db #0x42	; 66	'B'
      00132A 42                    8105 	.db #0x42	; 66	'B'
      00132B 42                    8106 	.db #0x42	; 66	'B'
      00132C 42                    8107 	.db #0x42	; 66	'B'
      00132D 42                    8108 	.db #0x42	; 66	'B'
      00132E 42                    8109 	.db #0x42	; 66	'B'
      00132F 42                    8110 	.db #0x42	; 66	'B'
      001330 42                    8111 	.db #0x42	; 66	'B'
      001331 2E                    8112 	.db #0x2e	; 46
      001332 2E                    8113 	.db #0x2e	; 46
      001333 42                    8114 	.db #0x42	; 66	'B'
      001334 42                    8115 	.db #0x42	; 66	'B'
      001335 42                    8116 	.db #0x42	; 66	'B'
      001336 42                    8117 	.db #0x42	; 66	'B'
      001337 42                    8118 	.db #0x42	; 66	'B'
      001338 42                    8119 	.db #0x42	; 66	'B'
      001339 42                    8120 	.db #0x42	; 66	'B'
      00133A 42                    8121 	.db #0x42	; 66	'B'
      00133B 42                    8122 	.db #0x42	; 66	'B'
      00133C 42                    8123 	.db #0x42	; 66	'B'
      00133D 42                    8124 	.db #0x42	; 66	'B'
      00133E 42                    8125 	.db #0x42	; 66	'B'
      00133F 42                    8126 	.db #0x42	; 66	'B'
      001340 42                    8127 	.db #0x42	; 66	'B'
      001341 42                    8128 	.db #0x42	; 66	'B'
      001342 42                    8129 	.db #0x42	; 66	'B'
      001343 42                    8130 	.db #0x42	; 66	'B'
      001344 42                    8131 	.db #0x42	; 66	'B'
      001345 2E                    8132 	.db #0x2e	; 46
      001346 2E                    8133 	.db #0x2e	; 46
      001347 42                    8134 	.db #0x42	; 66	'B'
      001348 42                    8135 	.db #0x42	; 66	'B'
      001349 42                    8136 	.db #0x42	; 66	'B'
      00134A 42                    8137 	.db #0x42	; 66	'B'
      00134B 42                    8138 	.db #0x42	; 66	'B'
      00134C 42                    8139 	.db #0x42	; 66	'B'
      00134D 42                    8140 	.db #0x42	; 66	'B'
      00134E 42                    8141 	.db #0x42	; 66	'B'
      00134F 42                    8142 	.db #0x42	; 66	'B'
      001350 42                    8143 	.db #0x42	; 66	'B'
      001351 42                    8144 	.db #0x42	; 66	'B'
      001352 42                    8145 	.db #0x42	; 66	'B'
      001353 42                    8146 	.db #0x42	; 66	'B'
      001354 42                    8147 	.db #0x42	; 66	'B'
      001355 42                    8148 	.db #0x42	; 66	'B'
      001356 42                    8149 	.db #0x42	; 66	'B'
      001357 42                    8150 	.db #0x42	; 66	'B'
      001358 42                    8151 	.db #0x42	; 66	'B'
      001359 2E                    8152 	.db #0x2e	; 46
      00135A 2E                    8153 	.db #0x2e	; 46
      00135B 42                    8154 	.db #0x42	; 66	'B'
      00135C 42                    8155 	.db #0x42	; 66	'B'
      00135D 42                    8156 	.db #0x42	; 66	'B'
      00135E 42                    8157 	.db #0x42	; 66	'B'
      00135F 42                    8158 	.db #0x42	; 66	'B'
      001360 42                    8159 	.db #0x42	; 66	'B'
      001361 42                    8160 	.db #0x42	; 66	'B'
      001362 42                    8161 	.db #0x42	; 66	'B'
      001363 42                    8162 	.db #0x42	; 66	'B'
      001364 42                    8163 	.db #0x42	; 66	'B'
      001365 42                    8164 	.db #0x42	; 66	'B'
      001366 42                    8165 	.db #0x42	; 66	'B'
      001367 42                    8166 	.db #0x42	; 66	'B'
      001368 42                    8167 	.db #0x42	; 66	'B'
      001369 42                    8168 	.db #0x42	; 66	'B'
      00136A 42                    8169 	.db #0x42	; 66	'B'
      00136B 42                    8170 	.db #0x42	; 66	'B'
      00136C 42                    8171 	.db #0x42	; 66	'B'
      00136D 2E                    8172 	.db #0x2e	; 46
      00136E 2E                    8173 	.db #0x2e	; 46
      00136F 42                    8174 	.db #0x42	; 66	'B'
      001370 42                    8175 	.db #0x42	; 66	'B'
      001371 42                    8176 	.db #0x42	; 66	'B'
      001372 42                    8177 	.db #0x42	; 66	'B'
      001373 42                    8178 	.db #0x42	; 66	'B'
      001374 42                    8179 	.db #0x42	; 66	'B'
      001375 42                    8180 	.db #0x42	; 66	'B'
      001376 42                    8181 	.db #0x42	; 66	'B'
      001377 42                    8182 	.db #0x42	; 66	'B'
      001378 42                    8183 	.db #0x42	; 66	'B'
      001379 42                    8184 	.db #0x42	; 66	'B'
      00137A 42                    8185 	.db #0x42	; 66	'B'
      00137B 42                    8186 	.db #0x42	; 66	'B'
      00137C 42                    8187 	.db #0x42	; 66	'B'
      00137D 42                    8188 	.db #0x42	; 66	'B'
      00137E 42                    8189 	.db #0x42	; 66	'B'
      00137F 42                    8190 	.db #0x42	; 66	'B'
      001380 42                    8191 	.db #0x42	; 66	'B'
      001381 2E                    8192 	.db #0x2e	; 46
      001382 2E                    8193 	.db #0x2e	; 46
      001383 42                    8194 	.db #0x42	; 66	'B'
      001384 42                    8195 	.db #0x42	; 66	'B'
      001385 42                    8196 	.db #0x42	; 66	'B'
      001386 42                    8197 	.db #0x42	; 66	'B'
      001387 42                    8198 	.db #0x42	; 66	'B'
      001388 42                    8199 	.db #0x42	; 66	'B'
      001389 42                    8200 	.db #0x42	; 66	'B'
      00138A 42                    8201 	.db #0x42	; 66	'B'
      00138B 42                    8202 	.db #0x42	; 66	'B'
      00138C 42                    8203 	.db #0x42	; 66	'B'
      00138D 42                    8204 	.db #0x42	; 66	'B'
      00138E 42                    8205 	.db #0x42	; 66	'B'
      00138F 42                    8206 	.db #0x42	; 66	'B'
      001390 42                    8207 	.db #0x42	; 66	'B'
      001391 42                    8208 	.db #0x42	; 66	'B'
      001392 42                    8209 	.db #0x42	; 66	'B'
      001393 42                    8210 	.db #0x42	; 66	'B'
      001394 42                    8211 	.db #0x42	; 66	'B'
      001395 2E                    8212 	.db #0x2e	; 46
      001396 2E                    8213 	.db #0x2e	; 46
      001397 42                    8214 	.db #0x42	; 66	'B'
      001398 42                    8215 	.db #0x42	; 66	'B'
      001399 42                    8216 	.db #0x42	; 66	'B'
      00139A 42                    8217 	.db #0x42	; 66	'B'
      00139B 42                    8218 	.db #0x42	; 66	'B'
      00139C 42                    8219 	.db #0x42	; 66	'B'
      00139D 42                    8220 	.db #0x42	; 66	'B'
      00139E 42                    8221 	.db #0x42	; 66	'B'
      00139F 42                    8222 	.db #0x42	; 66	'B'
      0013A0 42                    8223 	.db #0x42	; 66	'B'
      0013A1 42                    8224 	.db #0x42	; 66	'B'
      0013A2 42                    8225 	.db #0x42	; 66	'B'
      0013A3 42                    8226 	.db #0x42	; 66	'B'
      0013A4 42                    8227 	.db #0x42	; 66	'B'
      0013A5 42                    8228 	.db #0x42	; 66	'B'
      0013A6 42                    8229 	.db #0x42	; 66	'B'
      0013A7 42                    8230 	.db #0x42	; 66	'B'
      0013A8 42                    8231 	.db #0x42	; 66	'B'
      0013A9 2E                    8232 	.db #0x2e	; 46
      0013AA 2E                    8233 	.db #0x2e	; 46
      0013AB 2E                    8234 	.db #0x2e	; 46
      0013AC 2E                    8235 	.db #0x2e	; 46
      0013AD 2E                    8236 	.db #0x2e	; 46
      0013AE 2E                    8237 	.db #0x2e	; 46
      0013AF 2E                    8238 	.db #0x2e	; 46
      0013B0 2E                    8239 	.db #0x2e	; 46
      0013B1 2E                    8240 	.db #0x2e	; 46
      0013B2 2E                    8241 	.db #0x2e	; 46
      0013B3 2E                    8242 	.db #0x2e	; 46
      0013B4 2E                    8243 	.db #0x2e	; 46
      0013B5 2E                    8244 	.db #0x2e	; 46
      0013B6 2E                    8245 	.db #0x2e	; 46
      0013B7 2E                    8246 	.db #0x2e	; 46
      0013B8 2E                    8247 	.db #0x2e	; 46
      0013B9 2E                    8248 	.db #0x2e	; 46
      0013BA 2E                    8249 	.db #0x2e	; 46
      0013BB 2E                    8250 	.db #0x2e	; 46
      0013BC 2E                    8251 	.db #0x2e	; 46
      0013BD 2E                    8252 	.db #0x2e	; 46
      0013BE                       8253 __xinit__ClubCharacterSprites:
      0013BE 07                    8254 	.db #0x07	; 7
      0013BF 00                    8255 	.db #0x00	; 0
      0013C0 0F                    8256 	.db #0x0f	; 15
      0013C1 07                    8257 	.db #0x07	; 7
      0013C2 1F                    8258 	.db #0x1f	; 31
      0013C3 08                    8259 	.db #0x08	; 8
      0013C4 1F                    8260 	.db #0x1f	; 31
      0013C5 0A                    8261 	.db #0x0a	; 10
      0013C6 1F                    8262 	.db #0x1f	; 31
      0013C7 08                    8263 	.db #0x08	; 8
      0013C8 37                    8264 	.db #0x37	; 55	'7'
      0013C9 04                    8265 	.db #0x04	; 4
      0013CA 0F                    8266 	.db #0x0f	; 15
      0013CB 08                    8267 	.db #0x08	; 8
      0013CC 34                    8268 	.db #0x34	; 52	'4'
      0013CD 3B                    8269 	.db #0x3b	; 59
      0013CE C0                    8270 	.db #0xc0	; 192
      0013CF 00                    8271 	.db #0x00	; 0
      0013D0 E0                    8272 	.db #0xe0	; 224
      0013D1 C0                    8273 	.db #0xc0	; 192
      0013D2 F0                    8274 	.db #0xf0	; 240
      0013D3 20                    8275 	.db #0x20	; 32
      0013D4 F0                    8276 	.db #0xf0	; 240
      0013D5 A0                    8277 	.db #0xa0	; 160
      0013D6 F0                    8278 	.db #0xf0	; 240
      0013D7 20                    8279 	.db #0x20	; 32
      0013D8 D8                    8280 	.db #0xd8	; 216
      0013D9 40                    8281 	.db #0x40	; 64
      0013DA E0                    8282 	.db #0xe0	; 224
      0013DB 20                    8283 	.db #0x20	; 32
      0013DC 58                    8284 	.db #0x58	; 88	'X'
      0013DD B8                    8285 	.db #0xb8	; 184
      0013DE 50                    8286 	.db #0x50	; 80	'P'
      0013DF 7F                    8287 	.db #0x7f	; 127
      0013E0 FF                    8288 	.db #0xff	; 255
      0013E1 B0                    8289 	.db #0xb0	; 176
      0013E2 50                    8290 	.db #0x50	; 80	'P'
      0013E3 5F                    8291 	.db #0x5f	; 95
      0013E4 20                    8292 	.db #0x20	; 32
      0013E5 3F                    8293 	.db #0x3f	; 63
      0013E6 71                    8294 	.db #0x71	; 113	'q'
      0013E7 7F                    8295 	.db #0x7f	; 127
      0013E8 0F                    8296 	.db #0x0f	; 15
      0013E9 09                    8297 	.db #0x09	; 9
      0013EA 09                    8298 	.db #0x09	; 9
      0013EB 0F                    8299 	.db #0x0f	; 15
      0013EC 06                    8300 	.db #0x06	; 6
      0013ED 06                    8301 	.db #0x06	; 6
      0013EE 14                    8302 	.db #0x14	; 20
      0013EF FC                    8303 	.db #0xfc	; 252
      0013F0 FE                    8304 	.db #0xfe	; 254
      0013F1 1A                    8305 	.db #0x1a	; 26
      0013F2 14                    8306 	.db #0x14	; 20
      0013F3 F4                    8307 	.db #0xf4	; 244
      0013F4 08                    8308 	.db #0x08	; 8
      0013F5 F8                    8309 	.db #0xf8	; 248
      0013F6 1C                    8310 	.db #0x1c	; 28
      0013F7 FC                    8311 	.db #0xfc	; 252
      0013F8 E0                    8312 	.db #0xe0	; 224
      0013F9 20                    8313 	.db #0x20	; 32
      0013FA 20                    8314 	.db #0x20	; 32
      0013FB E0                    8315 	.db #0xe0	; 224
      0013FC C0                    8316 	.db #0xc0	; 192
      0013FD C0                    8317 	.db #0xc0	; 192
      0013FE 00                    8318 	.db #0x00	; 0
      0013FF 07                    8319 	.db #0x07	; 7
      001400 07                    8320 	.db #0x07	; 7
      001401 0F                    8321 	.db #0x0f	; 15
      001402 0F                    8322 	.db #0x0f	; 15
      001403 08                    8323 	.db #0x08	; 8
      001404 0B                    8324 	.db #0x0b	; 11
      001405 0E                    8325 	.db #0x0e	; 14
      001406 08                    8326 	.db #0x08	; 8
      001407 0F                    8327 	.db #0x0f	; 15
      001408 07                    8328 	.db #0x07	; 7
      001409 04                    8329 	.db #0x04	; 4
      00140A 1D                    8330 	.db #0x1d	; 29
      00140B 1E                    8331 	.db #0x1e	; 30
      00140C 72                    8332 	.db #0x72	; 114	'r'
      00140D 7D                    8333 	.db #0x7d	; 125
      00140E 00                    8334 	.db #0x00	; 0
      00140F C0                    8335 	.db #0xc0	; 192
      001410 C0                    8336 	.db #0xc0	; 192
      001411 E0                    8337 	.db #0xe0	; 224
      001412 E0                    8338 	.db #0xe0	; 224
      001413 20                    8339 	.db #0x20	; 32
      001414 A0                    8340 	.db #0xa0	; 160
      001415 E0                    8341 	.db #0xe0	; 224
      001416 20                    8342 	.db #0x20	; 32
      001417 E0                    8343 	.db #0xe0	; 224
      001418 C0                    8344 	.db #0xc0	; 192
      001419 40                    8345 	.db #0x40	; 64
      00141A 70                    8346 	.db #0x70	; 112	'p'
      00141B F0                    8347 	.db #0xf0	; 240
      00141C 9C                    8348 	.db #0x9c	; 156
      00141D 7C                    8349 	.db #0x7c	; 124
      00141E 91                    8350 	.db #0x91	; 145
      00141F FE                    8351 	.db #0xfe	; 254
      001420 91                    8352 	.db #0x91	; 145
      001421 FE                    8353 	.db #0xfe	; 254
      001422 71                    8354 	.db #0x71	; 113	'q'
      001423 5E                    8355 	.db #0x5e	; 94
      001424 3F                    8356 	.db #0x3f	; 63
      001425 3F                    8357 	.db #0x3f	; 63
      001426 11                    8358 	.db #0x11	; 17
      001427 1F                    8359 	.db #0x1f	; 31
      001428 12                    8360 	.db #0x12	; 18
      001429 1E                    8361 	.db #0x1e	; 30
      00142A 12                    8362 	.db #0x12	; 18
      00142B 1E                    8363 	.db #0x1e	; 30
      00142C 0C                    8364 	.db #0x0c	; 12
      00142D 0C                    8365 	.db #0x0c	; 12
      00142E 12                    8366 	.db #0x12	; 18
      00142F FE                    8367 	.db #0xfe	; 254
      001430 12                    8368 	.db #0x12	; 18
      001431 FE                    8369 	.db #0xfe	; 254
      001432 1C                    8370 	.db #0x1c	; 28
      001433 F4                    8371 	.db #0xf4	; 244
      001434 F8                    8372 	.db #0xf8	; 248
      001435 F8                    8373 	.db #0xf8	; 248
      001436 10                    8374 	.db #0x10	; 16
      001437 F0                    8375 	.db #0xf0	; 240
      001438 90                    8376 	.db #0x90	; 144
      001439 F0                    8377 	.db #0xf0	; 240
      00143A 90                    8378 	.db #0x90	; 144
      00143B F0                    8379 	.db #0xf0	; 240
      00143C 60                    8380 	.db #0x60	; 96
      00143D 60                    8381 	.db #0x60	; 96
      00143E 0F                    8382 	.db #0x0f	; 15
      00143F 1F                    8383 	.db #0x1f	; 31
      001440 1F                    8384 	.db #0x1f	; 31
      001441 1F                    8385 	.db #0x1f	; 31
      001442 1F                    8386 	.db #0x1f	; 31
      001443 18                    8387 	.db #0x18	; 24
      001444 0F                    8388 	.db #0x0f	; 15
      001445 0A                    8389 	.db #0x0a	; 10
      001446 0F                    8390 	.db #0x0f	; 15
      001447 08                    8391 	.db #0x08	; 8
      001448 07                    8392 	.db #0x07	; 7
      001449 04                    8393 	.db #0x04	; 4
      00144A 3B                    8394 	.db #0x3b	; 59
      00144B 3C                    8395 	.db #0x3c	; 60
      00144C 71                    8396 	.db #0x71	; 113	'q'
      00144D 4E                    8397 	.db #0x4e	; 78	'N'
      00144E E0                    8398 	.db #0xe0	; 224
      00144F F0                    8399 	.db #0xf0	; 240
      001450 F0                    8400 	.db #0xf0	; 240
      001451 F0                    8401 	.db #0xf0	; 240
      001452 F0                    8402 	.db #0xf0	; 240
      001453 30                    8403 	.db #0x30	; 48	'0'
      001454 E0                    8404 	.db #0xe0	; 224
      001455 A0                    8405 	.db #0xa0	; 160
      001456 E0                    8406 	.db #0xe0	; 224
      001457 20                    8407 	.db #0x20	; 32
      001458 C0                    8408 	.db #0xc0	; 192
      001459 40                    8409 	.db #0x40	; 64
      00145A B8                    8410 	.db #0xb8	; 184
      00145B 78                    8411 	.db #0x78	; 120	'x'
      00145C 1C                    8412 	.db #0x1c	; 28
      00145D E4                    8413 	.db #0xe4	; 228
      00145E F1                    8414 	.db #0xf1	; 241
      00145F 8F                    8415 	.db #0x8f	; 143
      001460 F1                    8416 	.db #0xf1	; 241
      001461 BF                    8417 	.db #0xbf	; 191
      001462 F1                    8418 	.db #0xf1	; 241
      001463 BF                    8419 	.db #0xbf	; 191
      001464 51                    8420 	.db #0x51	; 81	'Q'
      001465 5F                    8421 	.db #0x5f	; 95
      001466 13                    8422 	.db #0x13	; 19
      001467 1F                    8423 	.db #0x1f	; 31
      001468 12                    8424 	.db #0x12	; 18
      001469 1E                    8425 	.db #0x1e	; 30
      00146A 12                    8426 	.db #0x12	; 18
      00146B 1E                    8427 	.db #0x1e	; 30
      00146C 0C                    8428 	.db #0x0c	; 12
      00146D 0C                    8429 	.db #0x0c	; 12
      00146E 1E                    8430 	.db #0x1e	; 30
      00146F E2                    8431 	.db #0xe2	; 226
      001470 1E                    8432 	.db #0x1e	; 30
      001471 FA                    8433 	.db #0xfa	; 250
      001472 1E                    8434 	.db #0x1e	; 30
      001473 FA                    8435 	.db #0xfa	; 250
      001474 14                    8436 	.db #0x14	; 20
      001475 F4                    8437 	.db #0xf4	; 244
      001476 90                    8438 	.db #0x90	; 144
      001477 F0                    8439 	.db #0xf0	; 240
      001478 90                    8440 	.db #0x90	; 144
      001479 F0                    8441 	.db #0xf0	; 240
      00147A 90                    8442 	.db #0x90	; 144
      00147B F0                    8443 	.db #0xf0	; 240
      00147C 60                    8444 	.db #0x60	; 96
      00147D 60                    8445 	.db #0x60	; 96
      00147E 0F                    8446 	.db #0x0f	; 15
      00147F 1F                    8447 	.db #0x1f	; 31
      001480 1F                    8448 	.db #0x1f	; 31
      001481 1F                    8449 	.db #0x1f	; 31
      001482 1F                    8450 	.db #0x1f	; 31
      001483 18                    8451 	.db #0x18	; 24
      001484 0F                    8452 	.db #0x0f	; 15
      001485 0A                    8453 	.db #0x0a	; 10
      001486 0F                    8454 	.db #0x0f	; 15
      001487 08                    8455 	.db #0x08	; 8
      001488 07                    8456 	.db #0x07	; 7
      001489 04                    8457 	.db #0x04	; 4
      00148A 3B                    8458 	.db #0x3b	; 59
      00148B 3C                    8459 	.db #0x3c	; 60
      00148C 71                    8460 	.db #0x71	; 113	'q'
      00148D 4E                    8461 	.db #0x4e	; 78	'N'
      00148E E0                    8462 	.db #0xe0	; 224
      00148F F0                    8463 	.db #0xf0	; 240
      001490 F0                    8464 	.db #0xf0	; 240
      001491 F0                    8465 	.db #0xf0	; 240
      001492 F0                    8466 	.db #0xf0	; 240
      001493 30                    8467 	.db #0x30	; 48	'0'
      001494 E0                    8468 	.db #0xe0	; 224
      001495 A0                    8469 	.db #0xa0	; 160
      001496 E0                    8470 	.db #0xe0	; 224
      001497 20                    8471 	.db #0x20	; 32
      001498 C4                    8472 	.db #0xc4	; 196
      001499 44                    8473 	.db #0x44	; 68	'D'
      00149A BE                    8474 	.db #0xbe	; 190
      00149B 7A                    8475 	.db #0x7a	; 122	'z'
      00149C 1F                    8476 	.db #0x1f	; 31
      00149D E1                    8477 	.db #0xe1	; 225
      00149E F1                    8478 	.db #0xf1	; 241
      00149F 8F                    8479 	.db #0x8f	; 143
      0014A0 F1                    8480 	.db #0xf1	; 241
      0014A1 BF                    8481 	.db #0xbf	; 191
      0014A2 F1                    8482 	.db #0xf1	; 241
      0014A3 BF                    8483 	.db #0xbf	; 191
      0014A4 51                    8484 	.db #0x51	; 81	'Q'
      0014A5 5F                    8485 	.db #0x5f	; 95
      0014A6 13                    8486 	.db #0x13	; 19
      0014A7 1F                    8487 	.db #0x1f	; 31
      0014A8 12                    8488 	.db #0x12	; 18
      0014A9 1E                    8489 	.db #0x1e	; 30
      0014AA 12                    8490 	.db #0x12	; 18
      0014AB 1E                    8491 	.db #0x1e	; 30
      0014AC 0C                    8492 	.db #0x0c	; 12
      0014AD 0C                    8493 	.db #0x0c	; 12
      0014AE 1E                    8494 	.db #0x1e	; 30
      0014AF E2                    8495 	.db #0xe2	; 226
      0014B0 1C                    8496 	.db #0x1c	; 28
      0014B1 FC                    8497 	.db #0xfc	; 252
      0014B2 10                    8498 	.db #0x10	; 16
      0014B3 F0                    8499 	.db #0xf0	; 240
      0014B4 10                    8500 	.db #0x10	; 16
      0014B5 F0                    8501 	.db #0xf0	; 240
      0014B6 90                    8502 	.db #0x90	; 144
      0014B7 F0                    8503 	.db #0xf0	; 240
      0014B8 88                    8504 	.db #0x88	; 136
      0014B9 F8                    8505 	.db #0xf8	; 248
      0014BA 48                    8506 	.db #0x48	; 72	'H'
      0014BB 78                    8507 	.db #0x78	; 120	'x'
      0014BC 30                    8508 	.db #0x30	; 48	'0'
      0014BD 30                    8509 	.db #0x30	; 48	'0'
      0014BE 0F                    8510 	.db #0x0f	; 15
      0014BF 1F                    8511 	.db #0x1f	; 31
      0014C0 1F                    8512 	.db #0x1f	; 31
      0014C1 1F                    8513 	.db #0x1f	; 31
      0014C2 1F                    8514 	.db #0x1f	; 31
      0014C3 18                    8515 	.db #0x18	; 24
      0014C4 0F                    8516 	.db #0x0f	; 15
      0014C5 0A                    8517 	.db #0x0a	; 10
      0014C6 4F                    8518 	.db #0x4f	; 79	'O'
      0014C7 48                    8519 	.db #0x48	; 72	'H'
      0014C8 E7                    8520 	.db #0xe7	; 231
      0014C9 A4                    8521 	.db #0xa4	; 164
      0014CA FB                    8522 	.db #0xfb	; 251
      0014CB BC                    8523 	.db #0xbc	; 188
      0014CC F1                    8524 	.db #0xf1	; 241
      0014CD 8E                    8525 	.db #0x8e	; 142
      0014CE E0                    8526 	.db #0xe0	; 224
      0014CF F0                    8527 	.db #0xf0	; 240
      0014D0 F0                    8528 	.db #0xf0	; 240
      0014D1 F0                    8529 	.db #0xf0	; 240
      0014D2 F0                    8530 	.db #0xf0	; 240
      0014D3 30                    8531 	.db #0x30	; 48	'0'
      0014D4 E0                    8532 	.db #0xe0	; 224
      0014D5 A0                    8533 	.db #0xa0	; 160
      0014D6 E0                    8534 	.db #0xe0	; 224
      0014D7 20                    8535 	.db #0x20	; 32
      0014D8 C0                    8536 	.db #0xc0	; 192
      0014D9 40                    8537 	.db #0x40	; 64
      0014DA B8                    8538 	.db #0xb8	; 184
      0014DB 78                    8539 	.db #0x78	; 120	'x'
      0014DC 1C                    8540 	.db #0x1c	; 28
      0014DD E4                    8541 	.db #0xe4	; 228
      0014DE 71                    8542 	.db #0x71	; 113	'q'
      0014DF 4F                    8543 	.db #0x4f	; 79	'O'
      0014E0 31                    8544 	.db #0x31	; 49	'1'
      0014E1 3F                    8545 	.db #0x3f	; 63
      0014E2 11                    8546 	.db #0x11	; 17
      0014E3 1F                    8547 	.db #0x1f	; 31
      0014E4 11                    8548 	.db #0x11	; 17
      0014E5 1F                    8549 	.db #0x1f	; 31
      0014E6 13                    8550 	.db #0x13	; 19
      0014E7 1F                    8551 	.db #0x1f	; 31
      0014E8 22                    8552 	.db #0x22	; 34
      0014E9 3E                    8553 	.db #0x3e	; 62
      0014EA 24                    8554 	.db #0x24	; 36
      0014EB 3C                    8555 	.db #0x3c	; 60
      0014EC 38                    8556 	.db #0x38	; 56	'8'
      0014ED 38                    8557 	.db #0x38	; 56	'8'
      0014EE 1E                    8558 	.db #0x1e	; 30
      0014EF E2                    8559 	.db #0xe2	; 226
      0014F0 1E                    8560 	.db #0x1e	; 30
      0014F1 FA                    8561 	.db #0xfa	; 250
      0014F2 1E                    8562 	.db #0x1e	; 30
      0014F3 FA                    8563 	.db #0xfa	; 250
      0014F4 14                    8564 	.db #0x14	; 20
      0014F5 F4                    8565 	.db #0xf4	; 244
      0014F6 90                    8566 	.db #0x90	; 144
      0014F7 F0                    8567 	.db #0xf0	; 240
      0014F8 90                    8568 	.db #0x90	; 144
      0014F9 F0                    8569 	.db #0xf0	; 240
      0014FA 90                    8570 	.db #0x90	; 144
      0014FB F0                    8571 	.db #0xf0	; 240
      0014FC 60                    8572 	.db #0x60	; 96
      0014FD 60                    8573 	.db #0x60	; 96
      0014FE 00                    8574 	.db #0x00	; 0
      0014FF 00                    8575 	.db #0x00	; 0
      001500 00                    8576 	.db #0x00	; 0
      001501 00                    8577 	.db #0x00	; 0
      001502 0F                    8578 	.db #0x0f	; 15
      001503 1F                    8579 	.db #0x1f	; 31
      001504 1F                    8580 	.db #0x1f	; 31
      001505 1F                    8581 	.db #0x1f	; 31
      001506 1F                    8582 	.db #0x1f	; 31
      001507 18                    8583 	.db #0x18	; 24
      001508 0F                    8584 	.db #0x0f	; 15
      001509 0A                    8585 	.db #0x0a	; 10
      00150A 0F                    8586 	.db #0x0f	; 15
      00150B 08                    8587 	.db #0x08	; 8
      00150C 07                    8588 	.db #0x07	; 7
      00150D 04                    8589 	.db #0x04	; 4
      00150E 00                    8590 	.db #0x00	; 0
      00150F 00                    8591 	.db #0x00	; 0
      001510 00                    8592 	.db #0x00	; 0
      001511 00                    8593 	.db #0x00	; 0
      001512 E0                    8594 	.db #0xe0	; 224
      001513 F0                    8595 	.db #0xf0	; 240
      001514 F0                    8596 	.db #0xf0	; 240
      001515 F0                    8597 	.db #0xf0	; 240
      001516 F0                    8598 	.db #0xf0	; 240
      001517 30                    8599 	.db #0x30	; 48	'0'
      001518 E0                    8600 	.db #0xe0	; 224
      001519 A0                    8601 	.db #0xa0	; 160
      00151A E0                    8602 	.db #0xe0	; 224
      00151B 20                    8603 	.db #0x20	; 32
      00151C C0                    8604 	.db #0xc0	; 192
      00151D 40                    8605 	.db #0x40	; 64
      00151E 3B                    8606 	.db #0x3b	; 59
      00151F 3C                    8607 	.db #0x3c	; 60
      001520 71                    8608 	.db #0x71	; 113	'q'
      001521 4E                    8609 	.db #0x4e	; 78	'N'
      001522 F1                    8610 	.db #0xf1	; 241
      001523 8F                    8611 	.db #0x8f	; 143
      001524 F1                    8612 	.db #0xf1	; 241
      001525 BF                    8613 	.db #0xbf	; 191
      001526 F1                    8614 	.db #0xf1	; 241
      001527 BF                    8615 	.db #0xbf	; 191
      001528 71                    8616 	.db #0x71	; 113	'q'
      001529 7F                    8617 	.db #0x7f	; 127
      00152A 43                    8618 	.db #0x43	; 67	'C'
      00152B 7F                    8619 	.db #0x7f	; 127
      00152C 7F                    8620 	.db #0x7f	; 127
      00152D 7F                    8621 	.db #0x7f	; 127
      00152E B8                    8622 	.db #0xb8	; 184
      00152F 78                    8623 	.db #0x78	; 120	'x'
      001530 1C                    8624 	.db #0x1c	; 28
      001531 E4                    8625 	.db #0xe4	; 228
      001532 1E                    8626 	.db #0x1e	; 30
      001533 E2                    8627 	.db #0xe2	; 226
      001534 1E                    8628 	.db #0x1e	; 30
      001535 FA                    8629 	.db #0xfa	; 250
      001536 1E                    8630 	.db #0x1e	; 30
      001537 FA                    8631 	.db #0xfa	; 250
      001538 1C                    8632 	.db #0x1c	; 28
      001539 FC                    8633 	.db #0xfc	; 252
      00153A 84                    8634 	.db #0x84	; 132
      00153B FC                    8635 	.db #0xfc	; 252
      00153C FC                    8636 	.db #0xfc	; 252
      00153D FC                    8637 	.db #0xfc	; 252
      00153E 0F                    8638 	.db #0x0f	; 15
      00153F 1F                    8639 	.db #0x1f	; 31
      001540 1F                    8640 	.db #0x1f	; 31
      001541 1F                    8641 	.db #0x1f	; 31
      001542 1F                    8642 	.db #0x1f	; 31
      001543 18                    8643 	.db #0x18	; 24
      001544 0F                    8644 	.db #0x0f	; 15
      001545 0A                    8645 	.db #0x0a	; 10
      001546 0F                    8646 	.db #0x0f	; 15
      001547 08                    8647 	.db #0x08	; 8
      001548 47                    8648 	.db #0x47	; 71	'G'
      001549 44                    8649 	.db #0x44	; 68	'D'
      00154A FB                    8650 	.db #0xfb	; 251
      00154B BC                    8651 	.db #0xbc	; 188
      00154C F1                    8652 	.db #0xf1	; 241
      00154D 8E                    8653 	.db #0x8e	; 142
      00154E E0                    8654 	.db #0xe0	; 224
      00154F F0                    8655 	.db #0xf0	; 240
      001550 F0                    8656 	.db #0xf0	; 240
      001551 F0                    8657 	.db #0xf0	; 240
      001552 F0                    8658 	.db #0xf0	; 240
      001553 30                    8659 	.db #0x30	; 48	'0'
      001554 E0                    8660 	.db #0xe0	; 224
      001555 A0                    8661 	.db #0xa0	; 160
      001556 E0                    8662 	.db #0xe0	; 224
      001557 20                    8663 	.db #0x20	; 32
      001558 C4                    8664 	.db #0xc4	; 196
      001559 44                    8665 	.db #0x44	; 68	'D'
      00155A BE                    8666 	.db #0xbe	; 190
      00155B 7A                    8667 	.db #0x7a	; 122	'z'
      00155C 1E                    8668 	.db #0x1e	; 30
      00155D E2                    8669 	.db #0xe2	; 226
      00155E 71                    8670 	.db #0x71	; 113	'q'
      00155F 4F                    8671 	.db #0x4f	; 79	'O'
      001560 31                    8672 	.db #0x31	; 49	'1'
      001561 3F                    8673 	.db #0x3f	; 63
      001562 11                    8674 	.db #0x11	; 17
      001563 1F                    8675 	.db #0x1f	; 31
      001564 11                    8676 	.db #0x11	; 17
      001565 1F                    8677 	.db #0x1f	; 31
      001566 13                    8678 	.db #0x13	; 19
      001567 1F                    8679 	.db #0x1f	; 31
      001568 12                    8680 	.db #0x12	; 18
      001569 1E                    8681 	.db #0x1e	; 30
      00156A 12                    8682 	.db #0x12	; 18
      00156B 1E                    8683 	.db #0x1e	; 30
      00156C 0C                    8684 	.db #0x0c	; 12
      00156D 0C                    8685 	.db #0x0c	; 12
      00156E 1E                    8686 	.db #0x1e	; 30
      00156F E6                    8687 	.db #0xe6	; 230
      001570 18                    8688 	.db #0x18	; 24
      001571 F8                    8689 	.db #0xf8	; 248
      001572 10                    8690 	.db #0x10	; 16
      001573 F0                    8691 	.db #0xf0	; 240
      001574 10                    8692 	.db #0x10	; 16
      001575 F0                    8693 	.db #0xf0	; 240
      001576 90                    8694 	.db #0x90	; 144
      001577 F0                    8695 	.db #0xf0	; 240
      001578 90                    8696 	.db #0x90	; 144
      001579 F0                    8697 	.db #0xf0	; 240
      00157A 90                    8698 	.db #0x90	; 144
      00157B F0                    8699 	.db #0xf0	; 240
      00157C 60                    8700 	.db #0x60	; 96
      00157D 60                    8701 	.db #0x60	; 96
      00157E 0F                    8702 	.db #0x0f	; 15
      00157F 1F                    8703 	.db #0x1f	; 31
      001580 1F                    8704 	.db #0x1f	; 31
      001581 1F                    8705 	.db #0x1f	; 31
      001582 1F                    8706 	.db #0x1f	; 31
      001583 1F                    8707 	.db #0x1f	; 31
      001584 1F                    8708 	.db #0x1f	; 31
      001585 1F                    8709 	.db #0x1f	; 31
      001586 0F                    8710 	.db #0x0f	; 15
      001587 0F                    8711 	.db #0x0f	; 15
      001588 07                    8712 	.db #0x07	; 7
      001589 04                    8713 	.db #0x04	; 4
      00158A 38                    8714 	.db #0x38	; 56	'8'
      00158B 3F                    8715 	.db #0x3f	; 63
      00158C 70                    8716 	.db #0x70	; 112	'p'
      00158D 4F                    8717 	.db #0x4f	; 79	'O'
      00158E E0                    8718 	.db #0xe0	; 224
      00158F F0                    8719 	.db #0xf0	; 240
      001590 F0                    8720 	.db #0xf0	; 240
      001591 F0                    8721 	.db #0xf0	; 240
      001592 F0                    8722 	.db #0xf0	; 240
      001593 F0                    8723 	.db #0xf0	; 240
      001594 F0                    8724 	.db #0xf0	; 240
      001595 F0                    8725 	.db #0xf0	; 240
      001596 E0                    8726 	.db #0xe0	; 224
      001597 E0                    8727 	.db #0xe0	; 224
      001598 C0                    8728 	.db #0xc0	; 192
      001599 40                    8729 	.db #0x40	; 64
      00159A 38                    8730 	.db #0x38	; 56	'8'
      00159B F8                    8731 	.db #0xf8	; 248
      00159C 1C                    8732 	.db #0x1c	; 28
      00159D E4                    8733 	.db #0xe4	; 228
      00159E F0                    8734 	.db #0xf0	; 240
      00159F 8F                    8735 	.db #0x8f	; 143
      0015A0 F0                    8736 	.db #0xf0	; 240
      0015A1 BF                    8737 	.db #0xbf	; 191
      0015A2 F0                    8738 	.db #0xf0	; 240
      0015A3 BF                    8739 	.db #0xbf	; 191
      0015A4 50                    8740 	.db #0x50	; 80	'P'
      0015A5 5F                    8741 	.db #0x5f	; 95
      0015A6 13                    8742 	.db #0x13	; 19
      0015A7 1F                    8743 	.db #0x1f	; 31
      0015A8 12                    8744 	.db #0x12	; 18
      0015A9 1E                    8745 	.db #0x1e	; 30
      0015AA 12                    8746 	.db #0x12	; 18
      0015AB 1E                    8747 	.db #0x1e	; 30
      0015AC 0C                    8748 	.db #0x0c	; 12
      0015AD 0C                    8749 	.db #0x0c	; 12
      0015AE 1E                    8750 	.db #0x1e	; 30
      0015AF E2                    8751 	.db #0xe2	; 226
      0015B0 1E                    8752 	.db #0x1e	; 30
      0015B1 FA                    8753 	.db #0xfa	; 250
      0015B2 1E                    8754 	.db #0x1e	; 30
      0015B3 FA                    8755 	.db #0xfa	; 250
      0015B4 14                    8756 	.db #0x14	; 20
      0015B5 F4                    8757 	.db #0xf4	; 244
      0015B6 90                    8758 	.db #0x90	; 144
      0015B7 F0                    8759 	.db #0xf0	; 240
      0015B8 90                    8760 	.db #0x90	; 144
      0015B9 F0                    8761 	.db #0xf0	; 240
      0015BA 90                    8762 	.db #0x90	; 144
      0015BB F0                    8763 	.db #0xf0	; 240
      0015BC 60                    8764 	.db #0x60	; 96
      0015BD 60                    8765 	.db #0x60	; 96
      0015BE 0F                    8766 	.db #0x0f	; 15
      0015BF 1F                    8767 	.db #0x1f	; 31
      0015C0 1F                    8768 	.db #0x1f	; 31
      0015C1 1F                    8769 	.db #0x1f	; 31
      0015C2 1F                    8770 	.db #0x1f	; 31
      0015C3 18                    8771 	.db #0x18	; 24
      0015C4 0F                    8772 	.db #0x0f	; 15
      0015C5 0A                    8773 	.db #0x0a	; 10
      0015C6 0F                    8774 	.db #0x0f	; 15
      0015C7 08                    8775 	.db #0x08	; 8
      0015C8 47                    8776 	.db #0x47	; 71	'G'
      0015C9 44                    8777 	.db #0x44	; 68	'D'
      0015CA FB                    8778 	.db #0xfb	; 251
      0015CB BC                    8779 	.db #0xbc	; 188
      0015CC F1                    8780 	.db #0xf1	; 241
      0015CD 8E                    8781 	.db #0x8e	; 142
      0015CE E0                    8782 	.db #0xe0	; 224
      0015CF F0                    8783 	.db #0xf0	; 240
      0015D0 F0                    8784 	.db #0xf0	; 240
      0015D1 F0                    8785 	.db #0xf0	; 240
      0015D2 F0                    8786 	.db #0xf0	; 240
      0015D3 30                    8787 	.db #0x30	; 48	'0'
      0015D4 E0                    8788 	.db #0xe0	; 224
      0015D5 A0                    8789 	.db #0xa0	; 160
      0015D6 E0                    8790 	.db #0xe0	; 224
      0015D7 20                    8791 	.db #0x20	; 32
      0015D8 C4                    8792 	.db #0xc4	; 196
      0015D9 44                    8793 	.db #0x44	; 68	'D'
      0015DA BE                    8794 	.db #0xbe	; 190
      0015DB 7A                    8795 	.db #0x7a	; 122	'z'
      0015DC 1E                    8796 	.db #0x1e	; 30
      0015DD E2                    8797 	.db #0xe2	; 226
      0015DE 71                    8798 	.db #0x71	; 113	'q'
      0015DF 4F                    8799 	.db #0x4f	; 79	'O'
      0015E0 31                    8800 	.db #0x31	; 49	'1'
      0015E1 3F                    8801 	.db #0x3f	; 63
      0015E2 11                    8802 	.db #0x11	; 17
      0015E3 1F                    8803 	.db #0x1f	; 31
      0015E4 11                    8804 	.db #0x11	; 17
      0015E5 1F                    8805 	.db #0x1f	; 31
      0015E6 13                    8806 	.db #0x13	; 19
      0015E7 1F                    8807 	.db #0x1f	; 31
      0015E8 22                    8808 	.db #0x22	; 34
      0015E9 3E                    8809 	.db #0x3e	; 62
      0015EA 24                    8810 	.db #0x24	; 36
      0015EB 3C                    8811 	.db #0x3c	; 60
      0015EC 18                    8812 	.db #0x18	; 24
      0015ED 18                    8813 	.db #0x18	; 24
      0015EE 1E                    8814 	.db #0x1e	; 30
      0015EF E6                    8815 	.db #0xe6	; 230
      0015F0 18                    8816 	.db #0x18	; 24
      0015F1 F8                    8817 	.db #0xf8	; 248
      0015F2 10                    8818 	.db #0x10	; 16
      0015F3 F0                    8819 	.db #0xf0	; 240
      0015F4 10                    8820 	.db #0x10	; 16
      0015F5 F0                    8821 	.db #0xf0	; 240
      0015F6 90                    8822 	.db #0x90	; 144
      0015F7 F0                    8823 	.db #0xf0	; 240
      0015F8 88                    8824 	.db #0x88	; 136
      0015F9 F8                    8825 	.db #0xf8	; 248
      0015FA 48                    8826 	.db #0x48	; 72	'H'
      0015FB 78                    8827 	.db #0x78	; 120	'x'
      0015FC 30                    8828 	.db #0x30	; 48	'0'
      0015FD 30                    8829 	.db #0x30	; 48	'0'
      0015FE                       8830 __xinit__EndScreenMap:
      0015FE 7F                    8831 	.db #0x7f	; 127
      0015FF 7F                    8832 	.db #0x7f	; 127
      001600 7F                    8833 	.db #0x7f	; 127
      001601 7F                    8834 	.db #0x7f	; 127
      001602 7F                    8835 	.db #0x7f	; 127
      001603 7F                    8836 	.db #0x7f	; 127
      001604 7F                    8837 	.db #0x7f	; 127
      001605 7F                    8838 	.db #0x7f	; 127
      001606 7F                    8839 	.db #0x7f	; 127
      001607 7F                    8840 	.db #0x7f	; 127
      001608 7F                    8841 	.db #0x7f	; 127
      001609 18                    8842 	.db #0x18	; 24
      00160A 0E                    8843 	.db #0x0e	; 14
      00160B 14                    8844 	.db #0x14	; 20
      00160C 7F                    8845 	.db #0x7f	; 127
      00160D 00                    8846 	.db #0x00	; 0
      00160E 11                    8847 	.db #0x11	; 17
      00160F 04                    8848 	.db #0x04	; 4
      001610 7F                    8849 	.db #0x7f	; 127
      001611 13                    8850 	.db #0x13	; 19
      001612 07                    8851 	.db #0x07	; 7
      001613 04                    8852 	.db #0x04	; 4
      001614 7F                    8853 	.db #0x7f	; 127
      001615 7F                    8854 	.db #0x7f	; 127
      001616 7F                    8855 	.db #0x7f	; 127
      001617 7F                    8856 	.db #0x7f	; 127
      001618 7F                    8857 	.db #0x7f	; 127
      001619 7F                    8858 	.db #0x7f	; 127
      00161A 7F                    8859 	.db #0x7f	; 127
      00161B 7F                    8860 	.db #0x7f	; 127
      00161C 7F                    8861 	.db #0x7f	; 127
      00161D 7F                    8862 	.db #0x7f	; 127
      00161E 7F                    8863 	.db #0x7f	; 127
      00161F 7F                    8864 	.db #0x7f	; 127
      001620 02                    8865 	.db #0x02	; 2
      001621 0B                    8866 	.db #0x0b	; 11
      001622 14                    8867 	.db #0x14	; 20
      001623 01                    8868 	.db #0x01	; 1
      001624 7F                    8869 	.db #0x7f	; 127
      001625 0A                    8870 	.db #0x0a	; 10
      001626 08                    8871 	.db #0x08	; 8
      001627 0D                    8872 	.db #0x0d	; 13
      001628 06                    8873 	.db #0x06	; 6
      001629 7F                    8874 	.db #0x7f	; 127
      00162A                       8875 __xinit__LevelTwoTutorial:
      00162A 7F                    8876 	.db #0x7f	; 127
      00162B 7F                    8877 	.db #0x7f	; 127
      00162C 7F                    8878 	.db #0x7f	; 127
      00162D 7F                    8879 	.db #0x7f	; 127
      00162E 7F                    8880 	.db #0x7f	; 127
      00162F 7F                    8881 	.db #0x7f	; 127
      001630 7F                    8882 	.db #0x7f	; 127
      001631 7F                    8883 	.db #0x7f	; 127
      001632 7F                    8884 	.db #0x7f	; 127
      001633 7F                    8885 	.db #0x7f	; 127
      001634 7F                    8886 	.db #0x7f	; 127
      001635 7F                    8887 	.db #0x7f	; 127
      001636 7F                    8888 	.db #0x7f	; 127
      001637 7F                    8889 	.db #0x7f	; 127
      001638 7F                    8890 	.db #0x7f	; 127
      001639 7F                    8891 	.db #0x7f	; 127
      00163A 7F                    8892 	.db #0x7f	; 127
      00163B 7F                    8893 	.db #0x7f	; 127
      00163C 7F                    8894 	.db #0x7f	; 127
      00163D 7F                    8895 	.db #0x7f	; 127
      00163E 7F                    8896 	.db #0x7f	; 127
      00163F 43                    8897 	.db #0x43	; 67	'C'
      001640 7F                    8898 	.db #0x7f	; 127
      001641 7F                    8899 	.db #0x7f	; 127
      001642 44                    8900 	.db #0x44	; 68	'D'
      001643 7F                    8901 	.db #0x7f	; 127
      001644 7F                    8902 	.db #0x7f	; 127
      001645 45                    8903 	.db #0x45	; 69	'E'
      001646 7F                    8904 	.db #0x7f	; 127
      001647 7F                    8905 	.db #0x7f	; 127
      001648 46                    8906 	.db #0x46	; 70	'F'
      001649 7F                    8907 	.db #0x7f	; 127
      00164A 7F                    8908 	.db #0x7f	; 127
      00164B 47                    8909 	.db #0x47	; 71	'G'
      00164C 7F                    8910 	.db #0x7f	; 127
      00164D 7F                    8911 	.db #0x7f	; 127
      00164E 7F                    8912 	.db #0x7f	; 127
      00164F 7F                    8913 	.db #0x7f	; 127
      001650 7F                    8914 	.db #0x7f	; 127
      001651 7F                    8915 	.db #0x7f	; 127
      001652 7F                    8916 	.db #0x7f	; 127
      001653 49                    8917 	.db #0x49	; 73	'I'
      001654 4A                    8918 	.db #0x4a	; 74	'J'
      001655 7F                    8919 	.db #0x7f	; 127
      001656 4D                    8920 	.db #0x4d	; 77	'M'
      001657 4E                    8921 	.db #0x4e	; 78	'N'
      001658 7F                    8922 	.db #0x7f	; 127
      001659 59                    8923 	.db #0x59	; 89	'Y'
      00165A 5A                    8924 	.db #0x5a	; 90	'Z'
      00165B 7F                    8925 	.db #0x7f	; 127
      00165C 51                    8926 	.db #0x51	; 81	'Q'
      00165D 52                    8927 	.db #0x52	; 82	'R'
      00165E 7F                    8928 	.db #0x7f	; 127
      00165F 51                    8929 	.db #0x51	; 81	'Q'
      001660 52                    8930 	.db #0x52	; 82	'R'
      001661 7F                    8931 	.db #0x7f	; 127
      001662 7F                    8932 	.db #0x7f	; 127
      001663 7F                    8933 	.db #0x7f	; 127
      001664 7F                    8934 	.db #0x7f	; 127
      001665 7F                    8935 	.db #0x7f	; 127
      001666 7F                    8936 	.db #0x7f	; 127
      001667 4B                    8937 	.db #0x4b	; 75	'K'
      001668 4C                    8938 	.db #0x4c	; 76	'L'
      001669 7F                    8939 	.db #0x7f	; 127
      00166A 4F                    8940 	.db #0x4f	; 79	'O'
      00166B 50                    8941 	.db #0x50	; 80	'P'
      00166C 7F                    8942 	.db #0x7f	; 127
      00166D 5B                    8943 	.db #0x5b	; 91
      00166E 5C                    8944 	.db #0x5c	; 92
      00166F 7F                    8945 	.db #0x7f	; 127
      001670 53                    8946 	.db #0x53	; 83	'S'
      001671 54                    8947 	.db #0x54	; 84	'T'
      001672 7F                    8948 	.db #0x7f	; 127
      001673 57                    8949 	.db #0x57	; 87	'W'
      001674 58                    8950 	.db #0x58	; 88	'X'
      001675 7F                    8951 	.db #0x7f	; 127
      001676 7F                    8952 	.db #0x7f	; 127
      001677 7F                    8953 	.db #0x7f	; 127
      001678 7F                    8954 	.db #0x7f	; 127
      001679 7F                    8955 	.db #0x7f	; 127
      00167A 7F                    8956 	.db #0x7f	; 127
      00167B 7F                    8957 	.db #0x7f	; 127
      00167C 7F                    8958 	.db #0x7f	; 127
      00167D 7F                    8959 	.db #0x7f	; 127
      00167E 7F                    8960 	.db #0x7f	; 127
      00167F 7F                    8961 	.db #0x7f	; 127
      001680 7F                    8962 	.db #0x7f	; 127
      001681 7F                    8963 	.db #0x7f	; 127
      001682 7F                    8964 	.db #0x7f	; 127
      001683 7F                    8965 	.db #0x7f	; 127
      001684 7F                    8966 	.db #0x7f	; 127
      001685 7F                    8967 	.db #0x7f	; 127
      001686 7F                    8968 	.db #0x7f	; 127
      001687 7F                    8969 	.db #0x7f	; 127
      001688 7F                    8970 	.db #0x7f	; 127
      001689 7F                    8971 	.db #0x7f	; 127
      00168A 7F                    8972 	.db #0x7f	; 127
      00168B 7F                    8973 	.db #0x7f	; 127
      00168C 7F                    8974 	.db #0x7f	; 127
      00168D 7F                    8975 	.db #0x7f	; 127
      00168E                       8976 __xinit__tilesetIndex:
      00168E 00                    8977 	.db #0x00	;  0
      00168F                       8978 __xinit__spriteIndex:
      00168F 00                    8979 	.db #0x00	;  0
      001690                       8980 __xinit__In_Loading_Screen:
      001690 00                    8981 	.db #0x00	;  0
      001691                       8982 __xinit__PlayerState:
      001691 00                    8983 	.db #0x00	;  0
      001692                       8984 __xinit__MoveCooldown:
      001692 00                    8985 	.db #0x00	;  0
                                   8986 	.area _CABS (ABS)
